(dp0
S'home_players'
p1
(dp2
S'Sako'
p3
(dp4
S'player_stats'
p5
(dp6
S'takeon_success'
p7
I3
sS'chances'
p8
I0
sS'pass_success'
p9
I28
sS'off_target'
p10
I0
sS'fail_tkl'
p11
I1
sS'blocks_cross'
p12
I0
sS'error_shot'
p13
I0
sS'success_tkl'
p14
I3
sS'on_target'
p15
I0
sS'interception'
p16
I1
sS'aerial_won'
p17
I0
sS'blocks'
p18
I0
sS'aerial_lost'
p19
I1
sS'assists'
p20
I0
sS'goals'
p21
I1
sS'foul_sfr'
p22
I1
sS'foul_cmt'
p23
I1
sS'failed_clearence'
p24
I0
sS'ball_recovery'
p25
I0
sS'pass_fail'
p26
I9
sS'success_clearence'
p27
I0
sS'error_goal'
p28
I0
sS'takeon_fail'
p29
I0
ssS'link'
p30
S'http://www.fourfourtwo.com/statszone/8-2015/matches/803182/player-stats/44343/OVERALL_02#tabs-wrapper-anchor'
p31
ssS'Zaha'
p32
(dp33
g5
(dp34
g7
I0
sg8
I1
sg9
I7
sg10
I0
sg11
I0
sg12
I0
sg13
I0
sg14
I0
sg15
I0
sg16
I1
sg17
I1
sg18
I0
sg19
I2
sg20
I0
sg21
I0
sg22
I1
sg23
I1
sg24
I0
sg25
I0
sg26
I4
sg27
I0
sg28
I0
sg29
I1
ssg30
S'http://www.fourfourtwo.com/statszone/8-2015/matches/803182/player-stats/82403/OVERALL_02#tabs-wrapper-anchor'
p35
ssS'Puncheon'
p36
(dp37
g5
(dp38
g7
I2
sg8
I1
sg9
I45
sg10
I0
sg11
I1
sg12
I0
sg13
I0
sg14
I2
sg15
I0
sg16
I2
sg17
I0
sg18
I0
sg19
I1
sg20
I1
sg21
I0
sg22
I3
sg23
I1
sg24
I0
sg25
I0
sg26
I11
sg27
I0
sg28
I0
sg29
I0
ssg30
S'http://www.fourfourtwo.com/statszone/8-2015/matches/803182/player-stats/19197/OVERALL_02#tabs-wrapper-anchor'
p39
ssS'McCarthy'
p40
(dp41
g5
(dp42
g7
I0
sg8
I0
sg9
I13
sg10
I0
sg11
I0
sg12
I0
sg13
I0
sg14
I0
sg15
I0
sg16
I0
sg17
I0
sg18
I0
sg19
I0
sg20
I0
sg21
I0
sg22
I0
sg23
I0
sg24
I0
sg25
I0
sg26
I13
sg27
I0
sg28
I0
sg29
I0
ssg30
S'http://www.fourfourtwo.com/statszone/8-2015/matches/803182/player-stats/58376/OVERALL_02#tabs-wrapper-anchor'
p43
ssS'McArthur'
p44
(dp45
g5
(dp46
g7
I0
sg8
I2
sg9
I35
sg10
I0
sg11
I2
sg12
I0
sg13
I0
sg14
I2
sg15
I0
sg16
I2
sg17
I2
sg18
I0
sg19
I1
sg20
I0
sg21
I0
sg22
I1
sg23
I1
sg24
I0
sg25
I0
sg26
I6
sg27
I0
sg28
I0
sg29
I0
ssg30
S'http://www.fourfourtwo.com/statszone/8-2015/matches/803182/player-stats/50471/OVERALL_02#tabs-wrapper-anchor'
p47
ssS'Dann'
p48
(dp49
g5
(dp50
g7
I0
sg8
I0
sg9
I18
sg10
I0
sg11
I0
sg12
I0
sg13
I0
sg14
I1
sg15
I0
sg16
I0
sg17
I4
sg18
I0
sg19
I3
sg20
I1
sg21
I1
sg22
I1
sg23
I1
sg24
I0
sg25
I0
sg26
I6
sg27
I0
sg28
I0
sg29
I0
ssg30
S'http://www.fourfourtwo.com/statszone/8-2015/matches/803182/player-stats/19188/OVERALL_02#tabs-wrapper-anchor'
p51
ssS'Murray'
p52
(dp53
g5
(dp54
g7
I0
sg8
I1
sg9
I6
sg10
I0
sg11
I0
sg12
I0
sg13
I0
sg14
I0
sg15
I0
sg16
I0
sg17
I3
sg18
I0
sg19
I6
sg20
I0
sg21
I0
sg22
I0
sg23
I2
sg24
I0
sg25
I0
sg26
I4
sg27
I0
sg28
I0
sg29
I0
ssg30
S'http://www.fourfourtwo.com/statszone/8-2015/matches/803182/player-stats/20529/OVERALL_02#tabs-wrapper-anchor'
p55
ssS'Delaney'
p56
(dp57
g5
(dp58
g7
I0
sg8
I0
sg9
I16
sg10
I0
sg11
I0
sg12
I0
sg13
I0
sg14
I1
sg15
I0
sg16
I1
sg17
I8
sg18
I1
sg19
I7
sg20
I0
sg21
I0
sg22
I0
sg23
I0
sg24
I0
sg25
I0
sg26
I8
sg27
I0
sg28
I0
sg29
I0
ssg30
S'http://www.fourfourtwo.com/statszone/8-2015/matches/803182/player-stats/7906/OVERALL_02#tabs-wrapper-anchor'
p59
ssS'Souare'
p60
(dp61
g5
(dp62
g7
I0
sg8
I1
sg9
I46
sg10
I0
sg11
I0
sg12
I0
sg13
I0
sg14
I0
sg15
I0
sg16
I0
sg17
I0
sg18
I1
sg19
I1
sg20
I0
sg21
I0
sg22
I1
sg23
I1
sg24
I0
sg25
I0
sg26
I11
sg27
I0
sg28
I0
sg29
I0
ssg30
S'http://www.fourfourtwo.com/statszone/8-2015/matches/803182/player-stats/79228/OVERALL_02#tabs-wrapper-anchor'
p63
ssS'Ward'
p64
(dp65
g5
(dp66
g7
I1
sg8
I1
sg9
I30
sg10
I0
sg11
I2
sg12
I0
sg13
I0
sg14
I1
sg15
I0
sg16
I0
sg17
I3
sg18
I0
sg19
I3
sg20
I0
sg21
I0
sg22
I0
sg23
I1
sg24
I0
sg25
I0
sg26
I9
sg27
I0
sg28
I0
sg29
I0
ssg30
S'http://www.fourfourtwo.com/statszone/8-2015/matches/803182/player-stats/55494/OVERALL_02#tabs-wrapper-anchor'
p67
ssS'Cabaye'
p68
(dp69
g5
(dp70
g7
I0
sg8
I3
sg9
I26
sg10
I0
sg11
I2
sg12
I0
sg13
I0
sg14
I3
sg15
I0
sg16
I3
sg17
I0
sg18
I1
sg19
I0
sg20
I0
sg21
I0
sg22
I3
sg23
I2
sg24
I0
sg25
I0
sg26
I11
sg27
I0
sg28
I0
sg29
I0
ssg30
S'http://www.fourfourtwo.com/statszone/8-2015/matches/803182/player-stats/27341/OVERALL_02#tabs-wrapper-anchor'
p71
sssS'away_players'
p72
(dp73
S'Sanchez'
p74
(dp75
g5
(dp76
g7
I2
sg8
I1
sg9
I23
sg10
I0
sg11
I1
sg12
I0
sg13
I0
sg14
I2
sg15
I0
sg16
I3
sg17
I1
sg18
I0
sg19
I0
sg20
I0
sg21
I0
sg22
I0
sg23
I0
sg24
I0
sg25
I0
sg26
I6
sg27
I0
sg28
I0
sg29
I0
ssg30
S'http://www.fourfourtwo.com/statszone/8-2015/matches/803182/player-stats/42824/OVERALL_02#tabs-wrapper-anchor'
p77
ssS'Gueye'
p78
(dp79
g5
(dp80
g7
I1
sg8
I1
sg9
I38
sg10
I0
sg11
I0
sg12
I0
sg13
I0
sg14
I4
sg15
I0
sg16
I2
sg17
I2
sg18
I0
sg19
I0
sg20
I0
sg21
I0
sg22
I2
sg23
I4
sg24
I0
sg25
I0
sg26
I5
sg27
I0
sg28
I0
sg29
I1
ssg30
S'http://www.fourfourtwo.com/statszone/8-2015/matches/803182/player-stats/80801/OVERALL_02#tabs-wrapper-anchor'
p81
ssS'Bacuna'
p82
(dp83
g5
(dp84
g7
I0
sg8
I0
sg9
I31
sg10
I0
sg11
I3
sg12
I0
sg13
I0
sg14
I4
sg15
I0
sg16
I4
sg17
I1
sg18
I0
sg19
I0
sg20
I0
sg21
I0
sg22
I0
sg23
I0
sg24
I0
sg25
I0
sg26
I13
sg27
I0
sg28
I0
sg29
I0
ssg30
S'http://www.fourfourtwo.com/statszone/8-2015/matches/803182/player-stats/74297/OVERALL_02#tabs-wrapper-anchor'
p85
ssS'Clark'
p86
(dp87
g5
(dp88
g7
I0
sg8
I0
sg9
I23
sg10
I0
sg11
I0
sg12
I0
sg13
I0
sg14
I1
sg15
I0
sg16
I4
sg17
I5
sg18
I2
sg19
I3
sg20
I0
sg21
I0
sg22
I2
sg23
I1
sg24
I0
sg25
I0
sg26
I7
sg27
I0
sg28
I0
sg29
I1
ssg30
S'http://www.fourfourtwo.com/statszone/8-2015/matches/803182/player-stats/58845/OVERALL_02#tabs-wrapper-anchor'
p89
ssS'Amavi'
p90
(dp91
g5
(dp92
g7
I1
sg8
I0
sg9
I40
sg10
I0
sg11
I1
sg12
I0
sg13
I0
sg14
I0
sg15
I0
sg16
I1
sg17
I3
sg18
I1
sg19
I3
sg20
I0
sg21
I0
sg22
I1
sg23
I2
sg24
I0
sg25
I0
sg26
I10
sg27
I0
sg28
I0
sg29
I4
ssg30
S'http://www.fourfourtwo.com/statszone/8-2015/matches/803182/player-stats/115380/OVERALL_02#tabs-wrapper-anchor'
p93
ssS'Grealish'
p94
(dp95
g5
(dp96
g7
I3
sg8
I1
sg9
I27
sg10
I0
sg11
I0
sg12
I0
sg13
I0
sg14
I0
sg15
I0
sg16
I0
sg17
I0
sg18
I0
sg19
I2
sg20
I0
sg21
I0
sg22
I2
sg23
I3
sg24
I0
sg25
I0
sg26
I3
sg27
I0
sg28
I0
sg29
I1
ssg30
S'http://www.fourfourtwo.com/statszone/8-2015/matches/803182/player-stats/114283/OVERALL_02#tabs-wrapper-anchor'
p97
ssS'Guzan'
p98
(dp99
g5
(dp100
g7
I0
sg8
I0
sg9
I20
sg10
I0
sg11
I0
sg12
I0
sg13
I0
sg14
I0
sg15
I0
sg16
I0
sg17
I0
sg18
I0
sg19
I0
sg20
I0
sg21
I0
sg22
I0
sg23
I0
sg24
I0
sg25
I0
sg26
I18
sg27
I0
sg28
I0
sg29
I0
ssg30
S'http://www.fourfourtwo.com/statszone/8-2015/matches/803182/player-stats/41705/OVERALL_02#tabs-wrapper-anchor'
p101
ssS'Gestede'
p102
(dp103
g5
(dp104
g7
I0
sg8
I0
sg9
I16
sg10
I0
sg11
I0
sg12
I0
sg13
I0
sg14
I0
sg15
I0
sg16
I0
sg17
I11
sg18
I0
sg19
I11
sg20
I0
sg21
I0
sg22
I0
sg23
I1
sg24
I0
sg25
I0
sg26
I16
sg27
I0
sg28
I0
sg29
I0
ssg30
S'http://www.fourfourtwo.com/statszone/8-2015/matches/803182/player-stats/49207/OVERALL_02#tabs-wrapper-anchor'
p105
ssS'Richards'
p106
(dp107
g5
(dp108
g7
I1
sg8
I0
sg9
I23
sg10
I0
sg11
I0
sg12
I0
sg13
I0
sg14
I1
sg15
I0
sg16
I3
sg17
I2
sg18
I0
sg19
I3
sg20
I0
sg21
I0
sg22
I1
sg23
I1
sg24
I0
sg25
I0
sg26
I3
sg27
I0
sg28
I0
sg29
I1
ssg30
S'http://www.fourfourtwo.com/statszone/8-2015/matches/803182/player-stats/20492/OVERALL_02#tabs-wrapper-anchor'
p109
ssS'Agbonlahor'
p110
(dp111
g5
(dp112
g7
I0
sg8
I0
sg9
I0
sg10
I0
sg11
I0
sg12
I0
sg13
I0
sg14
I0
sg15
I0
sg16
I0
sg17
I0
sg18
I0
sg19
I0
sg20
I0
sg21
I0
sg22
I0
sg23
I0
sg24
I0
sg25
I0
sg26
I0
sg27
I0
sg28
I0
sg29
I0
ssg30
S'http://www.fourfourtwo.com/statszone/8-2015/matches/803182/player-stats/27450/OVERALL_02#tabs-wrapper-anchor'
p113
ssS'Westwood'
p114
(dp115
g5
(dp116
g7
I0
sg8
I5
sg9
I49
sg10
I0
sg11
I1
sg12
I0
sg13
I0
sg14
I1
sg15
I0
sg16
I1
sg17
I1
sg18
I0
sg19
I1
sg20
I0
sg21
I0
sg22
I1
sg23
I0
sg24
I0
sg25
I0
sg26
I6
sg27
I0
sg28
I0
sg29
I1
ssg30
S'http://www.fourfourtwo.com/statszone/8-2015/matches/803182/player-stats/60551/OVERALL_02#tabs-wrapper-anchor'
p117
sssS'homeTeam'
p118
S'Crystal Palace'
p119
sS'awayGoals'
p120
I1
sS'awayTeam'
p121
S'Aston Villa'
p122
sS'homeGoals'
p123
I2
sg30
S'http://www.fourfourtwo.com/statszone/8-2015/matches/803182'
p124
sS'match_stats'
p125
(dp126
S'home_shots'
p127
I16
sS'date_location'
p128
VSelhurst Park London, Saturday, August 22, 2015 - 15:00
p129
sS'away_shots'
p130
I11
sS'away_fouls'
p131
I15
sS'away_possession'
p132
F49.7
sS'home_crnr'
p133
I6
sS'away_crnr'
p134
I4
sS'away_pass_cmplt'
p135
I276
sS'home_pass_cmplt'
p136
I278
sS'time'
p137
S' 15:00'
p138
sS'date'
p139
S' August 22'
p140
sS'home_fouls'
p141
I12
sS'home_possession'
p142
F50.3
sS'home_attck_pass'
p143
I136
sS'away_attck_pass'
p144
I106
ss.