(dp0
S'home_players'
p1
(dp2
S'Schlupp'
p3
(dp4
S'player_stats'
p5
(dp6
S'takeon_success'
p7
I2
sS'chances'
p8
I0
sS'pass_success'
p9
I34
sS'off_target'
p10
I0
sS'fail_tkl'
p11
I1
sS'blocks_cross'
p12
I0
sS'error_shot'
p13
I0
sS'success_tkl'
p14
I4
sS'on_target'
p15
I0
sS'interception'
p16
I3
sS'aerial_won'
p17
I2
sS'blocks'
p18
I0
sS'aerial_lost'
p19
I0
sS'assists'
p20
I0
sS'goals'
p21
I0
sS'foul_sfr'
p22
I2
sS'foul_cmt'
p23
I0
sS'failed_clearence'
p24
I0
sS'ball_recovery'
p25
I0
sS'pass_fail'
p26
I14
sS'success_clearence'
p27
I0
sS'error_goal'
p28
I0
sS'takeon_fail'
p29
I1
ssS'link'
p30
S'http://www.fourfourtwo.com/statszone/8-2015/matches/803222/player-stats/86417/OVERALL_02#tabs-wrapper-anchor'
p31
ssS'Vardy'
p32
(dp33
g5
(dp34
g7
I1
sg8
I1
sg9
I7
sg10
I0
sg11
I0
sg12
I0
sg13
I0
sg14
I4
sg15
I0
sg16
I0
sg17
I1
sg18
I0
sg19
I9
sg20
I0
sg21
I2
sg22
I0
sg23
I0
sg24
I0
sg25
I0
sg26
I5
sg27
I0
sg28
I0
sg29
I3
ssg30
S'http://www.fourfourtwo.com/statszone/8-2015/matches/803222/player-stats/101668/OVERALL_02#tabs-wrapper-anchor'
p35
ssS'de Laet'
p36
(dp37
g5
(dp38
g7
I1
sg8
I0
sg9
I31
sg10
I0
sg11
I0
sg12
I0
sg13
I0
sg14
I0
sg15
I0
sg16
I5
sg17
I2
sg18
I7
sg19
I0
sg20
I0
sg21
I0
sg22
I1
sg23
I0
sg24
I0
sg25
I0
sg26
I10
sg27
I0
sg28
I0
sg29
I0
ssg30
S'http://www.fourfourtwo.com/statszone/8-2015/matches/803222/player-stats/46695/OVERALL_02#tabs-wrapper-anchor'
p39
ssS'Drinkwater'
p40
(dp41
g5
(dp42
g7
I1
sg8
I1
sg9
I49
sg10
I0
sg11
I3
sg12
I0
sg13
I0
sg14
I3
sg15
I0
sg16
I1
sg17
I0
sg18
I1
sg19
I0
sg20
I1
sg21
I0
sg22
I1
sg23
I2
sg24
I0
sg25
I0
sg26
I9
sg27
I0
sg28
I0
sg29
I0
ssg30
S'http://www.fourfourtwo.com/statszone/8-2015/matches/803222/player-stats/61603/OVERALL_02#tabs-wrapper-anchor'
p43
ssS'Mahrez'
p44
(dp45
g5
(dp46
g7
I8
sg8
I3
sg9
I26
sg10
I0
sg11
I5
sg12
I0
sg13
I0
sg14
I0
sg15
I0
sg16
I0
sg17
I2
sg18
I0
sg19
I5
sg20
I0
sg21
I0
sg22
I2
sg23
I0
sg24
I0
sg25
I0
sg26
I13
sg27
I0
sg28
I0
sg29
I3
ssg30
S'http://www.fourfourtwo.com/statszone/8-2015/matches/803222/player-stats/103025/OVERALL_02#tabs-wrapper-anchor'
p47
ssS'Schmeichel'
p48
(dp49
g5
(dp50
g7
I0
sg8
I1
sg9
I15
sg10
I0
sg11
I0
sg12
I0
sg13
I0
sg14
I0
sg15
I0
sg16
I0
sg17
I0
sg18
I0
sg19
I1
sg20
I0
sg21
I0
sg22
I0
sg23
I0
sg24
I0
sg25
I0
sg26
I20
sg27
I0
sg28
I0
sg29
I0
ssg30
S'http://www.fourfourtwo.com/statszone/8-2015/matches/803222/player-stats/17745/OVERALL_02#tabs-wrapper-anchor'
p51
ssS'Albrighton'
p52
(dp53
g5
(dp54
g7
I0
sg8
I1
sg9
I13
sg10
I0
sg11
I2
sg12
I0
sg13
I0
sg14
I0
sg15
I0
sg16
I1
sg17
I0
sg18
I0
sg19
I1
sg20
I0
sg21
I0
sg22
I0
sg23
I0
sg24
I0
sg25
I0
sg26
I16
sg27
I0
sg28
I0
sg29
I1
ssg30
S'http://www.fourfourtwo.com/statszone/8-2015/matches/803222/player-stats/51938/OVERALL_02#tabs-wrapper-anchor'
p55
ssS'Huth'
p56
(dp57
g5
(dp58
g7
I0
sg8
I0
sg9
I15
sg10
I0
sg11
I1
sg12
I0
sg13
I0
sg14
I3
sg15
I0
sg16
I2
sg17
I2
sg18
I4
sg19
I1
sg20
I0
sg21
I0
sg22
I1
sg23
I1
sg24
I0
sg25
I0
sg26
I4
sg27
I0
sg28
I0
sg29
I0
ssg30
S'http://www.fourfourtwo.com/statszone/8-2015/matches/803222/player-stats/12413/OVERALL_02#tabs-wrapper-anchor'
p59
ssS'Morgan'
p60
(dp61
g5
(dp62
g7
I1
sg8
I0
sg9
I15
sg10
I0
sg11
I0
sg12
I0
sg13
I0
sg14
I0
sg15
I0
sg16
I2
sg17
I2
sg18
I1
sg19
I0
sg20
I0
sg21
I0
sg22
I1
sg23
I0
sg24
I0
sg25
I0
sg26
I4
sg27
I0
sg28
I0
sg29
I0
ssg30
S'http://www.fourfourtwo.com/statszone/8-2015/matches/803222/player-stats/15033/OVERALL_02#tabs-wrapper-anchor'
p63
ssS'Okazaki'
p64
(dp65
g5
(dp66
g7
I0
sg8
I0
sg9
I10
sg10
I0
sg11
I0
sg12
I0
sg13
I0
sg14
I1
sg15
I0
sg16
I2
sg17
I1
sg18
I0
sg19
I1
sg20
I0
sg21
I0
sg22
I1
sg23
I2
sg24
I0
sg25
I0
sg26
I2
sg27
I0
sg28
I0
sg29
I2
ssg30
S'http://www.fourfourtwo.com/statszone/8-2015/matches/803222/player-stats/78412/OVERALL_02#tabs-wrapper-anchor'
p67
ssS'Kante'
p68
(dp69
g5
(dp70
g7
I1
sg8
I1
sg9
I39
sg10
I0
sg11
I2
sg12
I0
sg13
I0
sg14
I4
sg15
I0
sg16
I2
sg17
I0
sg18
I0
sg19
I2
sg20
I0
sg21
I0
sg22
I1
sg23
I2
sg24
I0
sg25
I0
sg26
I7
sg27
I0
sg28
I0
sg29
I1
ssg30
S'http://www.fourfourtwo.com/statszone/8-2015/matches/803222/player-stats/116594/OVERALL_02#tabs-wrapper-anchor'
p71
sssS'away_players'
p72
(dp73
S'Sanchez'
p74
(dp75
g5
(dp76
g7
I8
sg8
I3
sg9
I35
sg10
I0
sg11
I1
sg12
I0
sg13
I0
sg14
I3
sg15
I0
sg16
I0
sg17
I1
sg18
I0
sg19
I3
sg20
I0
sg21
I3
sg22
I1
sg23
I3
sg24
I0
sg25
I0
sg26
I14
sg27
I0
sg28
I0
sg29
I0
ssg30
S'http://www.fourfourtwo.com/statszone/8-2015/matches/803222/player-stats/37265/OVERALL_02#tabs-wrapper-anchor'
p77
ssS'Walcott'
p78
(dp79
g5
(dp80
g7
I1
sg8
I2
sg9
I12
sg10
I0
sg11
I0
sg12
I0
sg13
I0
sg14
I1
sg15
I0
sg16
I0
sg17
I1
sg18
I0
sg19
I1
sg20
I0
sg21
I1
sg22
I1
sg23
I0
sg24
I0
sg25
I0
sg26
I1
sg27
I0
sg28
I0
sg29
I1
ssg30
S'http://www.fourfourtwo.com/statszone/8-2015/matches/803222/player-stats/20467/OVERALL_02#tabs-wrapper-anchor'
p81
ssS'Cazorla'
p82
(dp83
g5
(dp84
g7
I3
sg8
I4
sg9
I67
sg10
I0
sg11
I3
sg12
I0
sg13
I0
sg14
I5
sg15
I0
sg16
I1
sg17
I0
sg18
I0
sg19
I1
sg20
I1
sg21
I0
sg22
I1
sg23
I0
sg24
I0
sg25
I0
sg26
I9
sg27
I0
sg28
I0
sg29
I1
ssg30
S'http://www.fourfourtwo.com/statszone/8-2015/matches/803222/player-stats/19524/OVERALL_02#tabs-wrapper-anchor'
p85
ssS'Flamini'
p86
(dp87
g5
(dp88
g7
I0
sg8
I0
sg9
I5
sg10
I0
sg11
I1
sg12
I0
sg13
I0
sg14
I0
sg15
I0
sg16
I0
sg17
I0
sg18
I0
sg19
I0
sg20
I0
sg21
I0
sg22
I0
sg23
I0
sg24
I0
sg25
I0
sg26
I1
sg27
I0
sg28
I0
sg29
I0
ssg30
S'http://www.fourfourtwo.com/statszone/8-2015/matches/803222/player-stats/18155/OVERALL_02#tabs-wrapper-anchor'
p89
ssS'Bellerin'
p90
(dp91
g5
(dp92
g7
I2
sg8
I2
sg9
I37
sg10
I0
sg11
I0
sg12
I0
sg13
I0
sg14
I1
sg15
I0
sg16
I2
sg17
I2
sg18
I0
sg19
I1
sg20
I0
sg21
I0
sg22
I0
sg23
I1
sg24
I0
sg25
I0
sg26
I15
sg27
I0
sg28
I0
sg29
I1
ssg30
S'http://www.fourfourtwo.com/statszone/8-2015/matches/803222/player-stats/98745/OVERALL_02#tabs-wrapper-anchor'
p93
ssS'Mertesacker'
p94
(dp95
g5
(dp96
g7
I0
sg8
I0
sg9
I60
sg10
I0
sg11
I0
sg12
I0
sg13
I0
sg14
I2
sg15
I0
sg16
I1
sg17
I6
sg18
I0
sg19
I0
sg20
I0
sg21
I0
sg22
I0
sg23
I0
sg24
I0
sg25
I0
sg26
I4
sg27
I0
sg28
I0
sg29
I0
ssg30
S'http://www.fourfourtwo.com/statszone/8-2015/matches/803222/player-stats/17127/OVERALL_02#tabs-wrapper-anchor'
p97
ssS'Ozil'
p98
(dp99
g5
(dp100
g7
I1
sg8
I6
sg9
I48
sg10
I0
sg11
I5
sg12
I0
sg13
I0
sg14
I2
sg15
I0
sg16
I0
sg17
I0
sg18
I0
sg19
I0
sg20
I1
sg21
I0
sg22
I0
sg23
I1
sg24
I0
sg25
I0
sg26
I6
sg27
I0
sg28
I0
sg29
I1
ssg30
S'http://www.fourfourtwo.com/statszone/8-2015/matches/803222/player-stats/37605/OVERALL_02#tabs-wrapper-anchor'
p101
ssS'Monreal'
p102
(dp103
g5
(dp104
g7
I0
sg8
I0
sg9
I43
sg10
I0
sg11
I2
sg12
I0
sg13
I0
sg14
I2
sg15
I0
sg16
I4
sg17
I7
sg18
I1
sg19
I1
sg20
I2
sg21
I0
sg22
I0
sg23
I1
sg24
I0
sg25
I0
sg26
I7
sg27
I0
sg28
I0
sg29
I0
ssg30
S'http://www.fourfourtwo.com/statszone/8-2015/matches/803222/player-stats/38411/OVERALL_02#tabs-wrapper-anchor'
p105
ssS'Ramsey'
p106
(dp107
g5
(dp108
g7
I0
sg8
I1
sg9
I33
sg10
I0
sg11
I2
sg12
I0
sg13
I0
sg14
I3
sg15
I0
sg16
I0
sg17
I0
sg18
I0
sg19
I2
sg20
I0
sg21
I0
sg22
I1
sg23
I1
sg24
I0
sg25
I0
sg26
I5
sg27
I0
sg28
I0
sg29
I1
ssg30
S'http://www.fourfourtwo.com/statszone/8-2015/matches/803222/player-stats/41792/OVERALL_02#tabs-wrapper-anchor'
p109
ssS'Cech'
p110
(dp111
g5
(dp112
g7
I0
sg8
I0
sg9
I20
sg10
I0
sg11
I0
sg12
I0
sg13
I0
sg14
I0
sg15
I0
sg16
I0
sg17
I0
sg18
I0
sg19
I0
sg20
I0
sg21
I0
sg22
I0
sg23
I0
sg24
I0
sg25
I0
sg26
I6
sg27
I0
sg28
I0
sg29
I0
ssg30
S'http://www.fourfourtwo.com/statszone/8-2015/matches/803222/player-stats/11334/OVERALL_02#tabs-wrapper-anchor'
p113
ssS'Koscielny'
p114
(dp115
g5
(dp116
g7
I0
sg8
I0
sg9
I50
sg10
I0
sg11
I0
sg12
I0
sg13
I0
sg14
I0
sg15
I0
sg16
I3
sg17
I2
sg18
I2
sg19
I1
sg20
I0
sg21
I0
sg22
I2
sg23
I1
sg24
I0
sg25
I0
sg26
I10
sg27
I0
sg28
I0
sg29
I0
ssg30
S'http://www.fourfourtwo.com/statszone/8-2015/matches/803222/player-stats/51507/OVERALL_02#tabs-wrapper-anchor'
p117
sssS'homeTeam'
p118
S'Leicester City'
p119
sS'awayGoals'
p120
I5
sS'awayTeam'
p121
S'Arsenal'
p122
sS'homeGoals'
p123
I2
sg30
S'http://www.fourfourtwo.com/statszone/8-2015/matches/803222'
p124
sS'match_stats'
p125
(dp126
S'home_shots'
p127
I16
sS'date_location'
p128
VKing Power Stadium Leicester, Saturday, September 26, 2015 - 15:00
p129
sS'away_shots'
p130
I27
sS'away_fouls'
p131
I12
sS'away_possession'
p132
F58.0
sS'home_crnr'
p133
I6
sS'away_crnr'
p134
I5
sS'away_pass_cmplt'
p135
I451
sS'home_pass_cmplt'
p136
I277
sS'time'
p137
S' 15:00'
p138
sS'date'
p139
S' September 26'
p140
sS'home_fouls'
p141
I9
sS'home_possession'
p142
F42.0
sS'home_attck_pass'
p143
I149
sS'away_attck_pass'
p144
I155
ss.