(dp0
S'home_players'
p1
(dp2
S'Mignolet'
p3
(dp4
S'player_stats'
p5
(dp6
S'takeon_success'
p7
I0
sS'chances'
p8
I0
sS'pass_success'
p9
I16
sS'off_target'
p10
I0
sS'fail_tkl'
p11
I0
sS'blocks_cross'
p12
I0
sS'error_shot'
p13
I0
sS'success_tkl'
p14
I0
sS'on_target'
p15
I0
sS'interception'
p16
I0
sS'aerial_won'
p17
I0
sS'blocks'
p18
I0
sS'aerial_lost'
p19
I0
sS'assists'
p20
I0
sS'goals'
p21
I0
sS'foul_sfr'
p22
I0
sS'foul_cmt'
p23
I0
sS'failed_clearence'
p24
I0
sS'ball_recovery'
p25
I0
sS'pass_fail'
p26
I2
sS'success_clearence'
p27
I0
sS'error_goal'
p28
I0
sS'takeon_fail'
p29
I0
ssS'link'
p30
S'http://www.fourfourtwo.com/statszone/8-2015/matches/803427/player-stats/66797/OVERALL_02#tabs-wrapper-anchor'
p31
ssS'Clyne'
p32
(dp33
g5
(dp34
g7
I0
sg8
I3
sg9
I56
sg10
I0
sg11
I0
sg12
I0
sg13
I0
sg14
I3
sg15
I0
sg16
I0
sg17
I0
sg18
I0
sg19
I0
sg20
I0
sg21
I0
sg22
I0
sg23
I0
sg24
I0
sg25
I0
sg26
I12
sg27
I0
sg28
I0
sg29
I1
ssg30
S'http://www.fourfourtwo.com/statszone/8-2015/matches/803427/player-stats/57328/OVERALL_02#tabs-wrapper-anchor'
p35
ssS'Milner'
p36
(dp37
g5
(dp38
g7
I1
sg8
I6
sg9
I60
sg10
I0
sg11
I0
sg12
I0
sg13
I0
sg14
I0
sg15
I0
sg16
I4
sg17
I0
sg18
I0
sg19
I0
sg20
I2
sg21
I0
sg22
I1
sg23
I3
sg24
I0
sg25
I0
sg26
I10
sg27
I0
sg28
I0
sg29
I0
ssg30
S'http://www.fourfourtwo.com/statszone/8-2015/matches/803427/player-stats/15157/OVERALL_02#tabs-wrapper-anchor'
p39
ssS'Lovren'
p40
(dp41
g5
(dp42
g7
I0
sg8
I0
sg9
I35
sg10
I0
sg11
I2
sg12
I0
sg13
I0
sg14
I1
sg15
I0
sg16
I1
sg17
I2
sg18
I0
sg19
I3
sg20
I0
sg21
I0
sg22
I0
sg23
I0
sg24
I0
sg25
I0
sg26
I6
sg27
I0
sg28
I0
sg29
I0
ssg30
S'http://www.fourfourtwo.com/statszone/8-2015/matches/803427/player-stats/38454/OVERALL_02#tabs-wrapper-anchor'
p43
ssS'Sakho'
p44
(dp45
g5
(dp46
g7
I0
sg8
I1
sg9
I47
sg10
I0
sg11
I0
sg12
I0
sg13
I0
sg14
I2
sg15
I0
sg16
I2
sg17
I4
sg18
I1
sg19
I1
sg20
I0
sg21
I1
sg22
I1
sg23
I0
sg24
I0
sg25
I0
sg26
I8
sg27
I0
sg28
I0
sg29
I0
ssg30
S'http://www.fourfourtwo.com/statszone/8-2015/matches/803427/player-stats/40784/OVERALL_02#tabs-wrapper-anchor'
p47
ssS'Lallana'
p48
(dp49
g5
(dp50
g7
I1
sg8
I5
sg9
I43
sg10
I0
sg11
I1
sg12
I0
sg13
I0
sg14
I1
sg15
I0
sg16
I2
sg17
I1
sg18
I0
sg19
I0
sg20
I0
sg21
I0
sg22
I1
sg23
I1
sg24
I0
sg25
I0
sg26
I10
sg27
I0
sg28
I0
sg29
I0
ssg30
S'http://www.fourfourtwo.com/statszone/8-2015/matches/803427/player-stats/39155/OVERALL_02#tabs-wrapper-anchor'
p51
ssS'Barbosa de Oliveira'
p52
(dp53
g5
(dp54
g7
I1
sg8
I1
sg9
I20
sg10
I0
sg11
I1
sg12
I0
sg13
I0
sg14
I3
sg15
I0
sg16
I1
sg17
I0
sg18
I0
sg19
I2
sg20
I0
sg21
I0
sg22
I1
sg23
I0
sg24
I0
sg25
I0
sg26
I11
sg27
I0
sg28
I0
sg29
I2
ssg30
S'http://www.fourfourtwo.com/statszone/8-2015/matches/803427/player-stats/92217/OVERALL_02#tabs-wrapper-anchor'
p55
ssS'Moreno'
p56
(dp57
g5
(dp58
g7
I0
sg8
I2
sg9
I52
sg10
I0
sg11
I0
sg12
I0
sg13
I0
sg14
I1
sg15
I0
sg16
I1
sg17
I0
sg18
I0
sg19
I0
sg20
I0
sg21
I0
sg22
I1
sg23
I1
sg24
I0
sg25
I0
sg26
I10
sg27
I0
sg28
I0
sg29
I0
ssg30
S'http://www.fourfourtwo.com/statszone/8-2015/matches/803427/player-stats/100059/OVERALL_02#tabs-wrapper-anchor'
p59
ssS'Coutinho'
p60
(dp61
g5
(dp62
g7
I3
sg8
I6
sg9
I74
sg10
I0
sg11
I3
sg12
I0
sg13
I0
sg14
I1
sg15
I0
sg16
I1
sg17
I0
sg18
I0
sg19
I0
sg20
I0
sg21
I1
sg22
I1
sg23
I0
sg24
I0
sg25
I0
sg26
I11
sg27
I0
sg28
I0
sg29
I3
ssg30
S'http://www.fourfourtwo.com/statszone/8-2015/matches/803427/player-stats/84583/OVERALL_02#tabs-wrapper-anchor'
p63
ssS'Leiva'
p64
(dp65
g5
(dp66
g7
I1
sg8
I2
sg9
I73
sg10
I0
sg11
I2
sg12
I0
sg13
I0
sg14
I4
sg15
I0
sg16
I3
sg17
I2
sg18
I0
sg19
I1
sg20
I1
sg21
I0
sg22
I0
sg23
I2
sg24
I0
sg25
I0
sg26
I7
sg27
I0
sg28
I0
sg29
I0
ssg30
S'http://www.fourfourtwo.com/statszone/8-2015/matches/803427/player-stats/43191/OVERALL_02#tabs-wrapper-anchor'
p67
ssS'Origi'
p68
(dp69
g5
(dp70
g7
I1
sg8
I0
sg9
I5
sg10
I0
sg11
I0
sg12
I0
sg13
I0
sg14
I2
sg15
I0
sg16
I0
sg17
I1
sg18
I0
sg19
I2
sg20
I0
sg21
I1
sg22
I2
sg23
I0
sg24
I0
sg25
I0
sg26
I2
sg27
I0
sg28
I0
sg29
I1
ssg30
S'http://www.fourfourtwo.com/statszone/8-2015/matches/803427/player-stats/152760/OVERALL_02#tabs-wrapper-anchor'
p71
sssS'away_players'
p72
(dp73
S'Oviedo'
p74
(dp75
g5
(dp76
g7
I1
sg8
I0
sg9
I23
sg10
I0
sg11
I1
sg12
I0
sg13
I0
sg14
I3
sg15
I0
sg16
I2
sg17
I0
sg18
I1
sg19
I0
sg20
I0
sg21
I0
sg22
I1
sg23
I3
sg24
I0
sg25
I0
sg26
I18
sg27
I0
sg28
I0
sg29
I1
ssg30
S'http://www.fourfourtwo.com/statszone/8-2015/matches/803427/player-stats/77762/OVERALL_02#tabs-wrapper-anchor'
p77
ssS'Stones'
p78
(dp79
g5
(dp80
g7
I0
sg8
I0
sg9
I9
sg10
I0
sg11
I1
sg12
I0
sg13
I0
sg14
I0
sg15
I0
sg16
I1
sg17
I1
sg18
I3
sg19
I1
sg20
I0
sg21
I0
sg22
I0
sg23
I0
sg24
I0
sg25
I0
sg26
I2
sg27
I0
sg28
I0
sg29
I0
ssg30
S'http://www.fourfourtwo.com/statszone/8-2015/matches/803427/player-stats/97299/OVERALL_02#tabs-wrapper-anchor'
p81
ssS'Lukaku'
p82
(dp83
g5
(dp84
g7
I0
sg8
I0
sg9
I18
sg10
I0
sg11
I0
sg12
I0
sg13
I0
sg14
I0
sg15
I0
sg16
I0
sg17
I4
sg18
I0
sg19
I4
sg20
I0
sg21
I0
sg22
I0
sg23
I0
sg24
I0
sg25
I0
sg26
I11
sg27
I0
sg28
I0
sg29
I1
ssg30
S'http://www.fourfourtwo.com/statszone/8-2015/matches/803427/player-stats/66749/OVERALL_02#tabs-wrapper-anchor'
p85
ssS'Barry'
p86
(dp87
g5
(dp88
g7
I0
sg8
I1
sg9
I19
sg10
I0
sg11
I1
sg12
I0
sg13
I0
sg14
I1
sg15
I0
sg16
I3
sg17
I2
sg18
I1
sg19
I0
sg20
I0
sg21
I0
sg22
I1
sg23
I1
sg24
I0
sg25
I0
sg26
I7
sg27
I0
sg28
I0
sg29
I0
ssg30
S'http://www.fourfourtwo.com/statszone/8-2015/matches/803427/player-stats/1632/OVERALL_02#tabs-wrapper-anchor'
p89
ssS'Barkley'
p90
(dp91
g5
(dp92
g7
I3
sg8
I0
sg9
I21
sg10
I0
sg11
I0
sg12
I0
sg13
I0
sg14
I2
sg15
I0
sg16
I0
sg17
I0
sg18
I1
sg19
I2
sg20
I0
sg21
I0
sg22
I3
sg23
I0
sg24
I0
sg25
I0
sg26
I4
sg27
I0
sg28
I0
sg29
I1
ssg30
S'http://www.fourfourtwo.com/statszone/8-2015/matches/803427/player-stats/88894/OVERALL_02#tabs-wrapper-anchor'
p93
ssS'McCarthy'
p94
(dp95
g5
(dp96
g7
I0
sg8
I0
sg9
I23
sg10
I0
sg11
I0
sg12
I0
sg13
I0
sg14
I2
sg15
I0
sg16
I6
sg17
I1
sg18
I3
sg19
I0
sg20
I0
sg21
I0
sg22
I0
sg23
I1
sg24
I0
sg25
I0
sg26
I7
sg27
I0
sg28
I0
sg29
I0
ssg30
S'http://www.fourfourtwo.com/statszone/8-2015/matches/803427/player-stats/50472/OVERALL_02#tabs-wrapper-anchor'
p97
ssS'Baines'
p98
(dp99
g5
(dp100
g7
I1
sg8
I0
sg9
I30
sg10
I0
sg11
I2
sg12
I0
sg13
I0
sg14
I1
sg15
I0
sg16
I3
sg17
I0
sg18
I0
sg19
I0
sg20
I0
sg21
I0
sg22
I1
sg23
I1
sg24
I0
sg25
I0
sg26
I13
sg27
I0
sg28
I0
sg29
I1
ssg30
S'http://www.fourfourtwo.com/statszone/8-2015/matches/803427/player-stats/12745/OVERALL_02#tabs-wrapper-anchor'
p101
ssS'Robles'
p102
(dp103
g5
(dp104
g7
I0
sg8
I0
sg9
I16
sg10
I0
sg11
I0
sg12
I0
sg13
I0
sg14
I0
sg15
I0
sg16
I0
sg17
I0
sg18
I0
sg19
I0
sg20
I0
sg21
I0
sg22
I0
sg23
I0
sg24
I0
sg25
I0
sg26
I30
sg27
I0
sg28
I0
sg29
I0
ssg30
S'http://www.fourfourtwo.com/statszone/8-2015/matches/803427/player-stats/78315/OVERALL_02#tabs-wrapper-anchor'
p105
ssS'Lennon'
p106
(dp107
g5
(dp108
g7
I0
sg8
I0
sg9
I10
sg10
I0
sg11
I0
sg12
I0
sg13
I0
sg14
I1
sg15
I0
sg16
I0
sg17
I0
sg18
I0
sg19
I0
sg20
I0
sg21
I0
sg22
I1
sg23
I1
sg24
I0
sg25
I0
sg26
I5
sg27
I0
sg28
I0
sg29
I2
ssg30
S'http://www.fourfourtwo.com/statszone/8-2015/matches/803427/player-stats/17349/OVERALL_02#tabs-wrapper-anchor'
p109
ssS'Funes Mori'
p110
(dp111
g5
(dp112
g7
I1
sg8
I0
sg9
I12
sg10
I0
sg11
I0
sg12
I0
sg13
I0
sg14
I1
sg15
I0
sg16
I0
sg17
I1
sg18
I0
sg19
I2
sg20
I0
sg21
I0
sg22
I0
sg23
I2
sg24
I0
sg25
I0
sg26
I7
sg27
I0
sg28
I0
sg29
I0
ssg30
S'http://www.fourfourtwo.com/statszone/8-2015/matches/803427/player-stats/121221/OVERALL_02#tabs-wrapper-anchor'
p113
ssS'Mirallas'
p114
(dp115
g5
(dp116
g7
I3
sg8
I0
sg9
I7
sg10
I0
sg11
I1
sg12
I0
sg13
I0
sg14
I0
sg15
I0
sg16
I0
sg17
I0
sg18
I1
sg19
I2
sg20
I0
sg21
I0
sg22
I0
sg23
I1
sg24
I0
sg25
I0
sg26
I10
sg27
I0
sg28
I0
sg29
I1
ssg30
S'http://www.fourfourtwo.com/statszone/8-2015/matches/803427/player-stats/26901/OVERALL_02#tabs-wrapper-anchor'
p117
sssS'homeTeam'
p118
S'Liverpool'
p119
sS'awayGoals'
p120
I0
sS'awayTeam'
p121
S'Everton'
p122
sS'homeGoals'
p123
I4
sg30
S'http://www.fourfourtwo.com/statszone/8-2015/matches/803427'
p124
sS'match_stats'
p125
(dp126
S'home_shots'
p127
I37
sS'date_location'
p128
VAnfield Liverpool, Wednesday, April 20, 2016 - 20:00
p129
sS'away_shots'
p130
I3
sS'away_fouls'
p131
I11
sS'away_possession'
p132
F33.4
sS'home_crnr'
p133
I9
sS'away_crnr'
p134
I1
sS'away_pass_cmplt'
p135
I192
sS'home_pass_cmplt'
p136
I510
sS'time'
p137
S' 20:00'
p138
sS'date'
p139
S' April 20'
p140
sS'home_fouls'
p141
I8
sS'home_possession'
p142
F66.6
sS'home_attck_pass'
p143
I287
sS'away_attck_pass'
p144
I73
ss.