(dp0
S'home_players'
p1
(dp2
S'Arnautovic'
p3
(dp4
S'player_stats'
p5
(dp6
S'takeon_success'
p7
I1
sS'chances'
p8
I3
sS'pass_success'
p9
I22
sS'off_target'
p10
I0
sS'fail_tkl'
p11
I1
sS'blocks_cross'
p12
I0
sS'error_shot'
p13
I0
sS'success_tkl'
p14
I2
sS'on_target'
p15
I0
sS'interception'
p16
I1
sS'aerial_won'
p17
I0
sS'blocks'
p18
I0
sS'aerial_lost'
p19
I0
sS'assists'
p20
I0
sS'goals'
p21
I0
sS'foul_sfr'
p22
I1
sS'foul_cmt'
p23
I2
sS'failed_clearence'
p24
I0
sS'ball_recovery'
p25
I0
sS'pass_fail'
p26
I7
sS'success_clearence'
p27
I0
sS'error_goal'
p28
I0
sS'takeon_fail'
p29
I0
ssS'link'
p30
S'http://www.fourfourtwo.com/statszone/8-2015/matches/803324/player-stats/41464/OVERALL_02#tabs-wrapper-anchor'
p31
ssS'Van Ginkel'
p32
(dp33
g5
(dp34
g7
I1
sg8
I1
sg9
I39
sg10
I0
sg11
I2
sg12
I0
sg13
I0
sg14
I3
sg15
I0
sg16
I1
sg17
I2
sg18
I0
sg19
I4
sg20
I0
sg21
I0
sg22
I0
sg23
I1
sg24
I0
sg25
I0
sg26
I7
sg27
I0
sg28
I0
sg29
I0
ssg30
S'http://www.fourfourtwo.com/statszone/8-2015/matches/803324/player-stats/82660/OVERALL_02#tabs-wrapper-anchor'
p35
ssS'Johnson'
p36
(dp37
g5
(dp38
g7
I2
sg8
I2
sg9
I36
sg10
I0
sg11
I4
sg12
I0
sg13
I0
sg14
I0
sg15
I0
sg16
I1
sg17
I0
sg18
I2
sg19
I0
sg20
I0
sg21
I0
sg22
I0
sg23
I0
sg24
I0
sg25
I0
sg26
I13
sg27
I0
sg28
I0
sg29
I0
ssg30
S'http://www.fourfourtwo.com/statszone/8-2015/matches/803324/player-stats/9047/OVERALL_02#tabs-wrapper-anchor'
p39
ssS'Wollscheid'
p40
(dp41
g5
(dp42
g7
I1
sg8
I0
sg9
I49
sg10
I0
sg11
I0
sg12
I0
sg13
I0
sg14
I3
sg15
I0
sg16
I2
sg17
I6
sg18
I0
sg19
I0
sg20
I0
sg21
I0
sg22
I0
sg23
I0
sg24
I0
sg25
I0
sg26
I8
sg27
I0
sg28
I0
sg29
I1
ssg30
S'http://www.fourfourtwo.com/statszone/8-2015/matches/803324/player-stats/69960/OVERALL_02#tabs-wrapper-anchor'
p43
ssS'Butland'
p44
(dp45
g5
(dp46
g7
I0
sg8
I0
sg9
I16
sg10
I0
sg11
I0
sg12
I0
sg13
I0
sg14
I0
sg15
I0
sg16
I0
sg17
I0
sg18
I0
sg19
I0
sg20
I0
sg21
I0
sg22
I0
sg23
I0
sg24
I0
sg25
I0
sg26
I8
sg27
I0
sg28
I0
sg29
I0
ssg30
S'http://www.fourfourtwo.com/statszone/8-2015/matches/803324/player-stats/105666/OVERALL_02#tabs-wrapper-anchor'
p47
ssS'Shawcross'
p48
(dp49
g5
(dp50
g7
I0
sg8
I0
sg9
I31
sg10
I0
sg11
I0
sg12
I0
sg13
I0
sg14
I0
sg15
I0
sg16
I2
sg17
I8
sg18
I0
sg19
I3
sg20
I0
sg21
I0
sg22
I0
sg23
I0
sg24
I0
sg25
I0
sg26
I11
sg27
I0
sg28
I0
sg29
I0
ssg30
S'http://www.fourfourtwo.com/statszone/8-2015/matches/803324/player-stats/37869/OVERALL_02#tabs-wrapper-anchor'
p51
ssS'Afellay'
p52
(dp53
g5
(dp54
g7
I2
sg8
I1
sg9
I54
sg10
I0
sg11
I0
sg12
I0
sg13
I0
sg14
I2
sg15
I0
sg16
I0
sg17
I1
sg18
I0
sg19
I0
sg20
I0
sg21
I0
sg22
I3
sg23
I1
sg24
I0
sg25
I0
sg26
I6
sg27
I0
sg28
I0
sg29
I2
ssg30
S'http://www.fourfourtwo.com/statszone/8-2015/matches/803324/player-stats/19568/OVERALL_02#tabs-wrapper-anchor'
p55
ssS'Whelan'
p56
(dp57
g5
(dp58
g7
I0
sg8
I0
sg9
I33
sg10
I0
sg11
I1
sg12
I0
sg13
I0
sg14
I0
sg15
I0
sg16
I1
sg17
I0
sg18
I0
sg19
I0
sg20
I0
sg21
I0
sg22
I0
sg23
I1
sg24
I0
sg25
I0
sg26
I4
sg27
I0
sg28
I0
sg29
I1
ssg30
S'http://www.fourfourtwo.com/statszone/8-2015/matches/803324/player-stats/12150/OVERALL_02#tabs-wrapper-anchor'
p59
ssS'Pieters'
p60
(dp61
g5
(dp62
g7
I0
sg8
I3
sg9
I44
sg10
I0
sg11
I0
sg12
I0
sg13
I0
sg14
I4
sg15
I0
sg16
I2
sg17
I4
sg18
I0
sg19
I2
sg20
I0
sg21
I0
sg22
I4
sg23
I1
sg24
I0
sg25
I0
sg26
I26
sg27
I0
sg28
I0
sg29
I0
ssg30
S'http://www.fourfourtwo.com/statszone/8-2015/matches/803324/player-stats/39487/OVERALL_02#tabs-wrapper-anchor'
p63
ssS'Krkic'
p64
(dp65
g5
(dp66
g7
I0
sg8
I3
sg9
I35
sg10
I0
sg11
I0
sg12
I0
sg13
I0
sg14
I2
sg15
I0
sg16
I2
sg17
I0
sg18
I0
sg19
I1
sg20
I0
sg21
I1
sg22
I2
sg23
I0
sg24
I0
sg25
I0
sg26
I6
sg27
I0
sg28
I0
sg29
I0
ssg30
S'http://www.fourfourtwo.com/statszone/8-2015/matches/803324/player-stats/40276/OVERALL_02#tabs-wrapper-anchor'
p67
ssS'Shaqiri'
p68
(dp69
g5
(dp70
g7
I1
sg8
I6
sg9
I18
sg10
I0
sg11
I0
sg12
I0
sg13
I0
sg14
I0
sg15
I0
sg16
I0
sg17
I0
sg18
I0
sg19
I0
sg20
I0
sg21
I0
sg22
I0
sg23
I0
sg24
I0
sg25
I0
sg26
I14
sg27
I0
sg28
I0
sg29
I2
ssg30
S'http://www.fourfourtwo.com/statszone/8-2015/matches/803324/player-stats/68312/OVERALL_02#tabs-wrapper-anchor'
p71
sssS'away_players'
p72
(dp73
S'Zaha'
p74
(dp75
g5
(dp76
g7
I1
sg8
I1
sg9
I7
sg10
I0
sg11
I2
sg12
I0
sg13
I0
sg14
I0
sg15
I0
sg16
I0
sg17
I0
sg18
I0
sg19
I0
sg20
I0
sg21
I0
sg22
I2
sg23
I3
sg24
I0
sg25
I0
sg26
I10
sg27
I0
sg28
I0
sg29
I4
ssg30
S'http://www.fourfourtwo.com/statszone/8-2015/matches/803324/player-stats/82403/OVERALL_02#tabs-wrapper-anchor'
p77
ssS'Puncheon'
p78
(dp79
g5
(dp80
g7
I0
sg8
I1
sg9
I30
sg10
I0
sg11
I0
sg12
I0
sg13
I0
sg14
I1
sg15
I0
sg16
I0
sg17
I0
sg18
I0
sg19
I0
sg20
I0
sg21
I0
sg22
I1
sg23
I1
sg24
I0
sg25
I0
sg26
I9
sg27
I0
sg28
I0
sg29
I0
ssg30
S'http://www.fourfourtwo.com/statszone/8-2015/matches/803324/player-stats/19197/OVERALL_02#tabs-wrapper-anchor'
p81
ssS'Wickham'
p82
(dp83
g5
(dp84
g7
I0
sg8
I0
sg9
I9
sg10
I0
sg11
I3
sg12
I0
sg13
I0
sg14
I0
sg15
I0
sg16
I1
sg17
I1
sg18
I0
sg19
I10
sg20
I0
sg21
I1
sg22
I0
sg23
I0
sg24
I0
sg25
I0
sg26
I13
sg27
I0
sg28
I0
sg29
I0
ssg30
S'http://www.fourfourtwo.com/statszone/8-2015/matches/803324/player-stats/59125/OVERALL_02#tabs-wrapper-anchor'
p85
ssS'McArthur'
p86
(dp87
g5
(dp88
g7
I0
sg8
I0
sg9
I30
sg10
I0
sg11
I2
sg12
I0
sg13
I0
sg14
I2
sg15
I0
sg16
I2
sg17
I1
sg18
I1
sg19
I3
sg20
I0
sg21
I0
sg22
I0
sg23
I4
sg24
I0
sg25
I0
sg26
I3
sg27
I0
sg28
I0
sg29
I0
ssg30
S'http://www.fourfourtwo.com/statszone/8-2015/matches/803324/player-stats/50471/OVERALL_02#tabs-wrapper-anchor'
p89
ssS'Dann'
p90
(dp91
g5
(dp92
g7
I1
sg8
I0
sg9
I27
sg10
I0
sg11
I1
sg12
I0
sg13
I0
sg14
I1
sg15
I0
sg16
I1
sg17
I2
sg18
I2
sg19
I2
sg20
I0
sg21
I0
sg22
I0
sg23
I0
sg24
I0
sg25
I0
sg26
I8
sg27
I0
sg28
I0
sg29
I0
ssg30
S'http://www.fourfourtwo.com/statszone/8-2015/matches/803324/player-stats/19188/OVERALL_02#tabs-wrapper-anchor'
p93
ssS'Ledley'
p94
(dp95
g5
(dp96
g7
I0
sg8
I1
sg9
I27
sg10
I0
sg11
I1
sg12
I0
sg13
I0
sg14
I2
sg15
I0
sg16
I0
sg17
I1
sg18
I2
sg19
I1
sg20
I0
sg21
I0
sg22
I0
sg23
I0
sg24
I0
sg25
I0
sg26
I10
sg27
I0
sg28
I0
sg29
I0
ssg30
S'http://www.fourfourtwo.com/statszone/8-2015/matches/803324/player-stats/18805/OVERALL_02#tabs-wrapper-anchor'
p97
ssS'Delaney'
p98
(dp99
g5
(dp100
g7
I0
sg8
I1
sg9
I23
sg10
I0
sg11
I0
sg12
I0
sg13
I0
sg14
I1
sg15
I0
sg16
I1
sg17
I4
sg18
I2
sg19
I2
sg20
I0
sg21
I0
sg22
I0
sg23
I2
sg24
I0
sg25
I0
sg26
I11
sg27
I0
sg28
I0
sg29
I0
ssg30
S'http://www.fourfourtwo.com/statszone/8-2015/matches/803324/player-stats/7906/OVERALL_02#tabs-wrapper-anchor'
p101
ssS'Souare'
p102
(dp103
g5
(dp104
g7
I0
sg8
I0
sg9
I27
sg10
I0
sg11
I0
sg12
I0
sg13
I0
sg14
I1
sg15
I0
sg16
I1
sg17
I0
sg18
I1
sg19
I0
sg20
I0
sg21
I0
sg22
I0
sg23
I0
sg24
I0
sg25
I0
sg26
I13
sg27
I0
sg28
I0
sg29
I0
ssg30
S'http://www.fourfourtwo.com/statszone/8-2015/matches/803324/player-stats/79228/OVERALL_02#tabs-wrapper-anchor'
p105
ssS'Ward'
p106
(dp107
g5
(dp108
g7
I0
sg8
I0
sg9
I34
sg10
I0
sg11
I0
sg12
I0
sg13
I0
sg14
I2
sg15
I0
sg16
I4
sg17
I0
sg18
I1
sg19
I1
sg20
I0
sg21
I0
sg22
I1
sg23
I1
sg24
I0
sg25
I0
sg26
I6
sg27
I0
sg28
I0
sg29
I1
ssg30
S'http://www.fourfourtwo.com/statszone/8-2015/matches/803324/player-stats/55494/OVERALL_02#tabs-wrapper-anchor'
p109
ssS'Hennessey'
p110
(dp111
g5
(dp112
g7
I0
sg8
I0
sg9
I18
sg10
I0
sg11
I0
sg12
I0
sg13
I0
sg14
I0
sg15
I0
sg16
I0
sg17
I0
sg18
I0
sg19
I0
sg20
I0
sg21
I0
sg22
I0
sg23
I0
sg24
I0
sg25
I0
sg26
I25
sg27
I0
sg28
I0
sg29
I0
ssg30
S'http://www.fourfourtwo.com/statszone/8-2015/matches/803324/player-stats/20066/OVERALL_02#tabs-wrapper-anchor'
p113
ssS'Bolasie'
p114
(dp115
g5
(dp116
g7
I7
sg8
I2
sg9
I12
sg10
I0
sg11
I0
sg12
I0
sg13
I0
sg14
I3
sg15
I0
sg16
I1
sg17
I1
sg18
I1
sg19
I1
sg20
I0
sg21
I0
sg22
I1
sg23
I0
sg24
I0
sg25
I0
sg26
I4
sg27
I0
sg28
I0
sg29
I2
ssg30
S'http://www.fourfourtwo.com/statszone/8-2015/matches/803324/player-stats/55452/OVERALL_02#tabs-wrapper-anchor'
p117
sssS'homeTeam'
p118
S'Stoke City'
p119
sS'awayGoals'
p120
I2
sS'awayTeam'
p121
S'Crystal Palace'
p122
sS'homeGoals'
p123
I1
sg30
S'http://www.fourfourtwo.com/statszone/8-2015/matches/803324'
p124
sS'match_stats'
p125
(dp126
S'home_shots'
p127
I26
sS'date_location'
p128
VBritannia Stadium Stoke, Saturday, December 19, 2015 - 15:00
p129
sS'away_shots'
p130
I12
sS'away_fouls'
p131
I12
sS'away_possession'
p132
F41.6
sS'home_crnr'
p133
I7
sS'away_crnr'
p134
I3
sS'away_pass_cmplt'
p135
I236
sS'home_pass_cmplt'
p136
I373
sS'time'
p137
S' 15:00'
p138
sS'date'
p139
S' December 19'
p140
sS'home_fouls'
p141
I6
sS'home_possession'
p142
F58.4
sS'home_attck_pass'
p143
I145
sS'away_attck_pass'
p144
I77
ss.