(dp0
S'home_players'
p1
(dp2
S'Routledge'
p3
(dp4
S'player_stats'
p5
(dp6
S'takeon_success'
p7
I4
sS'chances'
p8
I2
sS'pass_success'
p9
I28
sS'off_target'
p10
I0
sS'fail_tkl'
p11
I2
sS'blocks_cross'
p12
I0
sS'error_shot'
p13
I0
sS'success_tkl'
p14
I2
sS'on_target'
p15
I0
sS'interception'
p16
I0
sS'aerial_won'
p17
I0
sS'blocks'
p18
I0
sS'aerial_lost'
p19
I1
sS'assists'
p20
I0
sS'goals'
p21
I0
sS'foul_sfr'
p22
I3
sS'foul_cmt'
p23
I3
sS'failed_clearence'
p24
I0
sS'ball_recovery'
p25
I0
sS'pass_fail'
p26
I11
sS'success_clearence'
p27
I0
sS'error_goal'
p28
I0
sS'takeon_fail'
p29
I1
ssS'link'
p30
S'http://www.fourfourtwo.com/statszone/8-2015/matches/803340/player-stats/11829/OVERALL_02#tabs-wrapper-anchor'
p31
ssS'Taylor'
p32
(dp33
g5
(dp34
g7
I1
sg8
I1
sg9
I19
sg10
I0
sg11
I0
sg12
I0
sg13
I0
sg14
I1
sg15
I0
sg16
I3
sg17
I0
sg18
I0
sg19
I2
sg20
I0
sg21
I0
sg22
I0
sg23
I1
sg24
I0
sg25
I0
sg26
I14
sg27
I0
sg28
I0
sg29
I0
ssg30
S'http://www.fourfourtwo.com/statszone/8-2015/matches/803340/player-stats/47390/OVERALL_02#tabs-wrapper-anchor'
p35
ssS'Sigurdsson'
p36
(dp37
g5
(dp38
g7
I0
sg8
I3
sg9
I38
sg10
I0
sg11
I0
sg12
I0
sg13
I0
sg14
I0
sg15
I0
sg16
I2
sg17
I0
sg18
I0
sg19
I1
sg20
I0
sg21
I0
sg22
I1
sg23
I2
sg24
I0
sg25
I0
sg26
I10
sg27
I0
sg28
I0
sg29
I1
ssg30
S'http://www.fourfourtwo.com/statszone/8-2015/matches/803340/player-stats/55422/OVERALL_02#tabs-wrapper-anchor'
p39
ssS'Ki'
p40
(dp41
g5
(dp42
g7
I0
sg8
I0
sg9
I44
sg10
I0
sg11
I0
sg12
I0
sg13
I0
sg14
I1
sg15
I0
sg16
I1
sg17
I2
sg18
I1
sg19
I3
sg20
I0
sg21
I1
sg22
I1
sg23
I1
sg24
I0
sg25
I0
sg26
I9
sg27
I0
sg28
I0
sg29
I1
ssg30
S'http://www.fourfourtwo.com/statszone/8-2015/matches/803340/player-stats/76542/OVERALL_02#tabs-wrapper-anchor'
p43
ssS'Fabianski'
p44
(dp45
g5
(dp46
g7
I0
sg8
I0
sg9
I27
sg10
I0
sg11
I0
sg12
I0
sg13
I0
sg14
I0
sg15
I0
sg16
I0
sg17
I0
sg18
I0
sg19
I0
sg20
I0
sg21
I0
sg22
I0
sg23
I0
sg24
I0
sg25
I0
sg26
I12
sg27
I0
sg28
I0
sg29
I0
ssg30
S'http://www.fourfourtwo.com/statszone/8-2015/matches/803340/player-stats/37096/OVERALL_02#tabs-wrapper-anchor'
p47
ssS'Rangel'
p48
(dp49
g5
(dp50
g7
I1
sg8
I0
sg9
I72
sg10
I0
sg11
I0
sg12
I0
sg13
I0
sg14
I2
sg15
I0
sg16
I3
sg17
I1
sg18
I0
sg19
I0
sg20
I0
sg21
I0
sg22
I0
sg23
I0
sg24
I0
sg25
I0
sg26
I22
sg27
I0
sg28
I0
sg29
I0
ssg30
S'http://www.fourfourtwo.com/statszone/8-2015/matches/803340/player-stats/42996/OVERALL_02#tabs-wrapper-anchor'
p51
ssS'Ayew'
p52
(dp53
g5
(dp54
g7
I1
sg8
I0
sg9
I28
sg10
I0
sg11
I0
sg12
I0
sg13
I0
sg14
I0
sg15
I0
sg16
I0
sg17
I2
sg18
I0
sg19
I2
sg20
I0
sg21
I0
sg22
I2
sg23
I0
sg24
I0
sg25
I0
sg26
I4
sg27
I0
sg28
I0
sg29
I1
ssg30
S'http://www.fourfourtwo.com/statszone/8-2015/matches/803340/player-stats/45124/OVERALL_02#tabs-wrapper-anchor'
p55
ssS'Fernandez'
p56
(dp57
g5
(dp58
g7
I0
sg8
I0
sg9
I43
sg10
I0
sg11
I1
sg12
I0
sg13
I0
sg14
I0
sg15
I0
sg16
I1
sg17
I0
sg18
I0
sg19
I0
sg20
I0
sg21
I0
sg22
I1
sg23
I1
sg24
I0
sg25
I0
sg26
I12
sg27
I0
sg28
I0
sg29
I0
ssg30
S'http://www.fourfourtwo.com/statszone/8-2015/matches/803340/player-stats/57145/OVERALL_02#tabs-wrapper-anchor'
p59
ssS'Britton'
p60
(dp61
g5
(dp62
g7
I0
sg8
I0
sg9
I39
sg10
I0
sg11
I1
sg12
I0
sg13
I0
sg14
I5
sg15
I0
sg16
I1
sg17
I0
sg18
I1
sg19
I0
sg20
I0
sg21
I0
sg22
I1
sg23
I0
sg24
I0
sg25
I0
sg26
I3
sg27
I0
sg28
I0
sg29
I0
ssg30
S'http://www.fourfourtwo.com/statszone/8-2015/matches/803340/player-stats/15114/OVERALL_02#tabs-wrapper-anchor'
p63
ssS'Montero'
p64
(dp65
g5
(dp66
g7
I0
sg8
I0
sg9
I9
sg10
I0
sg11
I0
sg12
I0
sg13
I0
sg14
I0
sg15
I0
sg16
I0
sg17
I0
sg18
I0
sg19
I1
sg20
I0
sg21
I0
sg22
I1
sg23
I0
sg24
I0
sg25
I0
sg26
I4
sg27
I0
sg28
I0
sg29
I0
ssg30
S'http://www.fourfourtwo.com/statszone/8-2015/matches/803340/player-stats/49195/OVERALL_02#tabs-wrapper-anchor'
p67
ssS'Williams'
p68
(dp69
g5
(dp70
g7
I0
sg8
I0
sg9
I37
sg10
I0
sg11
I0
sg12
I0
sg13
I0
sg14
I2
sg15
I0
sg16
I4
sg17
I1
sg18
I1
sg19
I1
sg20
I0
sg21
I0
sg22
I2
sg23
I2
sg24
I0
sg25
I0
sg26
I9
sg27
I0
sg28
I0
sg29
I0
ssg30
S'http://www.fourfourtwo.com/statszone/8-2015/matches/803340/player-stats/19159/OVERALL_02#tabs-wrapper-anchor'
p71
sssS'away_players'
p72
(dp73
S'Evans'
p74
(dp75
g5
(dp76
g7
I1
sg8
I1
sg9
I42
sg10
I0
sg11
I0
sg12
I0
sg13
I0
sg14
I4
sg15
I0
sg16
I9
sg17
I1
sg18
I1
sg19
I0
sg20
I0
sg21
I0
sg22
I4
sg23
I1
sg24
I0
sg25
I0
sg26
I9
sg27
I0
sg28
I0
sg29
I0
ssg30
S'http://www.fourfourtwo.com/statszone/8-2015/matches/803340/player-stats/37642/OVERALL_02#tabs-wrapper-anchor'
p77
ssS'Lambert'
p78
(dp79
g5
(dp80
g7
I0
sg8
I1
sg9
I21
sg10
I0
sg11
I0
sg12
I0
sg13
I0
sg14
I0
sg15
I0
sg16
I0
sg17
I2
sg18
I0
sg19
I0
sg20
I0
sg21
I0
sg22
I0
sg23
I1
sg24
I0
sg25
I0
sg26
I13
sg27
I0
sg28
I0
sg29
I0
ssg30
S'http://www.fourfourtwo.com/statszone/8-2015/matches/803340/player-stats/11037/OVERALL_02#tabs-wrapper-anchor'
p81
ssS'Gardner'
p82
(dp83
g5
(dp84
g7
I0
sg8
I0
sg9
I9
sg10
I0
sg11
I0
sg12
I0
sg13
I0
sg14
I1
sg15
I0
sg16
I0
sg17
I0
sg18
I0
sg19
I0
sg20
I0
sg21
I0
sg22
I2
sg23
I0
sg24
I0
sg25
I0
sg26
I10
sg27
I0
sg28
I0
sg29
I1
ssg30
S'http://www.fourfourtwo.com/statszone/8-2015/matches/803340/player-stats/28468/OVERALL_02#tabs-wrapper-anchor'
p85
ssS'Yacob'
p86
(dp87
g5
(dp88
g7
I0
sg8
I0
sg9
I25
sg10
I0
sg11
I3
sg12
I0
sg13
I0
sg14
I4
sg15
I0
sg16
I4
sg17
I3
sg18
I0
sg19
I0
sg20
I0
sg21
I0
sg22
I1
sg23
I2
sg24
I0
sg25
I0
sg26
I6
sg27
I0
sg28
I0
sg29
I0
ssg30
S'http://www.fourfourtwo.com/statszone/8-2015/matches/803340/player-stats/55829/OVERALL_02#tabs-wrapper-anchor'
p89
ssS'Fletcher'
p90
(dp91
g5
(dp92
g7
I1
sg8
I1
sg9
I35
sg10
I0
sg11
I2
sg12
I0
sg13
I0
sg14
I1
sg15
I0
sg16
I2
sg17
I0
sg18
I0
sg19
I1
sg20
I0
sg21
I0
sg22
I0
sg23
I1
sg24
I0
sg25
I0
sg26
I12
sg27
I0
sg28
I0
sg29
I3
ssg30
S'http://www.fourfourtwo.com/statszone/8-2015/matches/803340/player-stats/14295/OVERALL_02#tabs-wrapper-anchor'
p93
ssS'Brunt'
p94
(dp95
g5
(dp96
g7
I1
sg8
I2
sg9
I22
sg10
I0
sg11
I2
sg12
I0
sg13
I0
sg14
I1
sg15
I0
sg16
I2
sg17
I0
sg18
I0
sg19
I1
sg20
I0
sg21
I0
sg22
I0
sg23
I1
sg24
I0
sg25
I0
sg26
I20
sg27
I0
sg28
I0
sg29
I0
ssg30
S'http://www.fourfourtwo.com/statszone/8-2015/matches/803340/player-stats/19151/OVERALL_02#tabs-wrapper-anchor'
p97
ssS'Myhill'
p98
(dp99
g5
(dp100
g7
I0
sg8
I0
sg9
I14
sg10
I0
sg11
I0
sg12
I0
sg13
I0
sg14
I0
sg15
I0
sg16
I0
sg17
I0
sg18
I0
sg19
I0
sg20
I0
sg21
I0
sg22
I0
sg23
I0
sg24
I0
sg25
I0
sg26
I14
sg27
I0
sg28
I0
sg29
I0
ssg30
S'http://www.fourfourtwo.com/statszone/8-2015/matches/803340/player-stats/12086/OVERALL_02#tabs-wrapper-anchor'
p101
ssS'Dawson'
p102
(dp103
g5
(dp104
g7
I0
sg8
I0
sg9
I43
sg10
I0
sg11
I0
sg12
I0
sg13
I0
sg14
I1
sg15
I0
sg16
I0
sg17
I3
sg18
I0
sg19
I1
sg20
I0
sg21
I0
sg22
I0
sg23
I2
sg24
I0
sg25
I0
sg26
I24
sg27
I0
sg28
I0
sg29
I0
ssg30
S'http://www.fourfourtwo.com/statszone/8-2015/matches/803340/player-stats/60232/OVERALL_02#tabs-wrapper-anchor'
p105
ssS'Morrison'
p106
(dp107
g5
(dp108
g7
I0
sg8
I0
sg9
I39
sg10
I0
sg11
I1
sg12
I0
sg13
I0
sg14
I1
sg15
I0
sg16
I3
sg17
I0
sg18
I0
sg19
I1
sg20
I0
sg21
I0
sg22
I0
sg23
I0
sg24
I0
sg25
I0
sg26
I8
sg27
I0
sg28
I0
sg29
I0
ssg30
S'http://www.fourfourtwo.com/statszone/8-2015/matches/803340/player-stats/18008/OVERALL_02#tabs-wrapper-anchor'
p109
ssS'Olsson'
p110
(dp111
g5
(dp112
g7
I0
sg8
I0
sg9
I14
sg10
I0
sg11
I0
sg12
I0
sg13
I0
sg14
I0
sg15
I0
sg16
I0
sg17
I0
sg18
I1
sg19
I1
sg20
I0
sg21
I0
sg22
I0
sg23
I2
sg24
I0
sg25
I0
sg26
I8
sg27
I0
sg28
I0
sg29
I0
ssg30
S'http://www.fourfourtwo.com/statszone/8-2015/matches/803340/player-stats/39253/OVERALL_02#tabs-wrapper-anchor'
p113
ssS'McAuley'
p114
(dp115
g5
(dp116
g7
I0
sg8
I0
sg9
I30
sg10
I0
sg11
I0
sg12
I0
sg13
I0
sg14
I0
sg15
I0
sg16
I4
sg17
I2
sg18
I0
sg19
I1
sg20
I0
sg21
I0
sg22
I2
sg23
I1
sg24
I0
sg25
I0
sg26
I12
sg27
I0
sg28
I0
sg29
I0
ssg30
S'http://www.fourfourtwo.com/statszone/8-2015/matches/803340/player-stats/19272/OVERALL_02#tabs-wrapper-anchor'
p117
sssS'homeTeam'
p118
S'Swansea City'
p119
sS'awayGoals'
p120
I0
sS'awayTeam'
p121
S'West Bromwich Albion'
p122
sS'homeGoals'
p123
I1
sg30
S'http://www.fourfourtwo.com/statszone/8-2015/matches/803340'
p124
sS'match_stats'
p125
(dp126
S'home_shots'
p127
I7
sS'date_location'
p128
VLiberty Stadium Swansea, Saturday, December 26, 2015 - 15:00
p129
sS'away_shots'
p130
I9
sS'away_fouls'
p131
I13
sS'away_possession'
p132
F44.5
sS'home_crnr'
p133
I0
sS'away_crnr'
p134
I7
sS'away_pass_cmplt'
p135
I279
sS'home_pass_cmplt'
p136
I399
sS'time'
p137
S' 15:00'
p138
sS'date'
p139
S' December 26'
p140
sS'home_fouls'
p141
I10
sS'home_possession'
p142
F55.5
sS'home_attck_pass'
p143
I123
sS'away_attck_pass'
p144
I131
ss.