(dp0
S'home_players'
p1
(dp2
S'Vertonghen'
p3
(dp4
S'player_stats'
p5
(dp6
S'takeon_success'
p7
I0
sS'chances'
p8
I0
sS'pass_success'
p9
I57
sS'off_target'
p10
I0
sS'fail_tkl'
p11
I0
sS'blocks_cross'
p12
I0
sS'error_shot'
p13
I0
sS'success_tkl'
p14
I1
sS'on_target'
p15
I0
sS'interception'
p16
I3
sS'aerial_won'
p17
I0
sS'blocks'
p18
I2
sS'aerial_lost'
p19
I1
sS'assists'
p20
I0
sS'goals'
p21
I0
sS'foul_sfr'
p22
I2
sS'foul_cmt'
p23
I0
sS'failed_clearence'
p24
I0
sS'ball_recovery'
p25
I0
sS'pass_fail'
p26
I9
sS'success_clearence'
p27
I0
sS'error_goal'
p28
I0
sS'takeon_fail'
p29
I0
ssS'link'
p30
S'http://www.fourfourtwo.com/statszone/8-2015/matches/803263/player-stats/39194/OVERALL_02#tabs-wrapper-anchor'
p31
ssS'Kane'
p32
(dp33
g5
(dp34
g7
I0
sg8
I1
sg9
I12
sg10
I0
sg11
I0
sg12
I0
sg13
I0
sg14
I1
sg15
I0
sg16
I0
sg17
I5
sg18
I0
sg19
I3
sg20
I0
sg21
I1
sg22
I1
sg23
I2
sg24
I0
sg25
I0
sg26
I13
sg27
I0
sg28
I0
sg29
I3
ssg30
S'http://www.fourfourtwo.com/statszone/8-2015/matches/803263/player-stats/78830/OVERALL_02#tabs-wrapper-anchor'
p35
ssS'Eriksen'
p36
(dp37
g5
(dp38
g7
I2
sg8
I4
sg9
I42
sg10
I0
sg11
I2
sg12
I0
sg13
I0
sg14
I2
sg15
I0
sg16
I1
sg17
I0
sg18
I0
sg19
I0
sg20
I0
sg21
I0
sg22
I0
sg23
I0
sg24
I0
sg25
I0
sg26
I8
sg27
I0
sg28
I0
sg29
I0
ssg30
S'http://www.fourfourtwo.com/statszone/8-2015/matches/803263/player-stats/80607/OVERALL_02#tabs-wrapper-anchor'
p39
ssS'Lamela'
p40
(dp41
g5
(dp42
g7
I2
sg8
I3
sg9
I28
sg10
I0
sg11
I7
sg12
I0
sg13
I0
sg14
I2
sg15
I0
sg16
I1
sg17
I0
sg18
I0
sg19
I2
sg20
I1
sg21
I0
sg22
I2
sg23
I1
sg24
I0
sg25
I0
sg26
I5
sg27
I0
sg28
I0
sg29
I4
ssg30
S'http://www.fourfourtwo.com/statszone/8-2015/matches/803263/player-stats/62974/OVERALL_02#tabs-wrapper-anchor'
p43
ssS'Rose'
p44
(dp45
g5
(dp46
g7
I0
sg8
I0
sg9
I41
sg10
I0
sg11
I1
sg12
I0
sg13
I0
sg14
I2
sg15
I0
sg16
I4
sg17
I0
sg18
I1
sg19
I2
sg20
I1
sg21
I0
sg22
I1
sg23
I1
sg24
I0
sg25
I0
sg26
I14
sg27
I0
sg28
I0
sg29
I3
ssg30
S'http://www.fourfourtwo.com/statszone/8-2015/matches/803263/player-stats/38290/OVERALL_02#tabs-wrapper-anchor'
p47
ssS'Dembele'
p48
(dp49
g5
(dp50
g7
I3
sg8
I0
sg9
I33
sg10
I0
sg11
I0
sg12
I0
sg13
I0
sg14
I1
sg15
I0
sg16
I0
sg17
I2
sg18
I0
sg19
I0
sg20
I0
sg21
I1
sg22
I2
sg23
I2
sg24
I0
sg25
I0
sg26
I10
sg27
I0
sg28
I0
sg29
I0
ssg30
S'http://www.fourfourtwo.com/statszone/8-2015/matches/803263/player-stats/39104/OVERALL_02#tabs-wrapper-anchor'
p51
ssS'Alli'
p52
(dp53
g5
(dp54
g7
I1
sg8
I1
sg9
I49
sg10
I0
sg11
I1
sg12
I0
sg13
I0
sg14
I2
sg15
I0
sg16
I3
sg17
I2
sg18
I0
sg19
I3
sg20
I0
sg21
I1
sg22
I2
sg23
I0
sg24
I0
sg25
I0
sg26
I12
sg27
I0
sg28
I0
sg29
I4
ssg30
S'http://www.fourfourtwo.com/statszone/8-2015/matches/803263/player-stats/108823/OVERALL_02#tabs-wrapper-anchor'
p55
ssS'Lloris'
p56
(dp57
g5
(dp58
g7
I0
sg8
I0
sg9
I31
sg10
I0
sg11
I0
sg12
I0
sg13
I0
sg14
I0
sg15
I0
sg16
I0
sg17
I0
sg18
I0
sg19
I0
sg20
I0
sg21
I0
sg22
I0
sg23
I0
sg24
I0
sg25
I0
sg26
I10
sg27
I0
sg28
I0
sg29
I0
ssg30
S'http://www.fourfourtwo.com/statszone/8-2015/matches/803263/player-stats/37915/OVERALL_02#tabs-wrapper-anchor'
p59
ssS'Alderweireld'
p60
(dp61
g5
(dp62
g7
I0
sg8
I0
sg9
I62
sg10
I0
sg11
I0
sg12
I0
sg13
I0
sg14
I0
sg15
I0
sg16
I3
sg17
I1
sg18
I0
sg19
I2
sg20
I0
sg21
I0
sg22
I0
sg23
I0
sg24
I0
sg25
I0
sg26
I9
sg27
I0
sg28
I0
sg29
I1
ssg30
S'http://www.fourfourtwo.com/statszone/8-2015/matches/803263/player-stats/55605/OVERALL_02#tabs-wrapper-anchor'
p63
ssS'Walker'
p64
(dp65
g5
(dp66
g7
I0
sg8
I0
sg9
I38
sg10
I0
sg11
I0
sg12
I0
sg13
I0
sg14
I3
sg15
I0
sg16
I4
sg17
I3
sg18
I1
sg19
I1
sg20
I0
sg21
I0
sg22
I1
sg23
I0
sg24
I0
sg25
I0
sg26
I12
sg27
I0
sg28
I0
sg29
I0
ssg30
S'http://www.fourfourtwo.com/statszone/8-2015/matches/803263/player-stats/58621/OVERALL_02#tabs-wrapper-anchor'
p67
ssS'Dier'
p68
(dp69
g5
(dp70
g7
I0
sg8
I1
sg9
I44
sg10
I0
sg11
I1
sg12
I0
sg13
I0
sg14
I7
sg15
I0
sg16
I0
sg17
I5
sg18
I1
sg19
I5
sg20
I0
sg21
I0
sg22
I1
sg23
I0
sg24
I0
sg25
I0
sg26
I9
sg27
I0
sg28
I0
sg29
I0
ssg30
S'http://www.fourfourtwo.com/statszone/8-2015/matches/803263/player-stats/93264/OVERALL_02#tabs-wrapper-anchor'
p71
sssS'away_players'
p72
(dp73
S'Sanchez'
p74
(dp75
g5
(dp76
g7
I1
sg8
I0
sg9
I28
sg10
I0
sg11
I4
sg12
I0
sg13
I0
sg14
I6
sg15
I0
sg16
I5
sg17
I1
sg18
I1
sg19
I2
sg20
I0
sg21
I0
sg22
I0
sg23
I4
sg24
I0
sg25
I0
sg26
I14
sg27
I0
sg28
I0
sg29
I1
ssg30
S'http://www.fourfourtwo.com/statszone/8-2015/matches/803263/player-stats/42824/OVERALL_02#tabs-wrapper-anchor'
p77
ssS'Bacuna'
p78
(dp79
g5
(dp80
g7
I2
sg8
I3
sg9
I24
sg10
I0
sg11
I2
sg12
I0
sg13
I0
sg14
I1
sg15
I0
sg16
I3
sg17
I2
sg18
I0
sg19
I1
sg20
I0
sg21
I0
sg22
I0
sg23
I0
sg24
I0
sg25
I0
sg26
I15
sg27
I0
sg28
I0
sg29
I3
ssg30
S'http://www.fourfourtwo.com/statszone/8-2015/matches/803263/player-stats/74297/OVERALL_02#tabs-wrapper-anchor'
p81
ssS'Guzan'
p82
(dp83
g5
(dp84
g7
I0
sg8
I0
sg9
I14
sg10
I0
sg11
I0
sg12
I0
sg13
I0
sg14
I0
sg15
I0
sg16
I0
sg17
I0
sg18
I0
sg19
I0
sg20
I0
sg21
I0
sg22
I0
sg23
I0
sg24
I0
sg25
I0
sg26
I13
sg27
I0
sg28
I0
sg29
I0
ssg30
S'http://www.fourfourtwo.com/statszone/8-2015/matches/803263/player-stats/41705/OVERALL_02#tabs-wrapper-anchor'
p85
ssS'Clark'
p86
(dp87
g5
(dp88
g7
I0
sg8
I0
sg9
I10
sg10
I0
sg11
I1
sg12
I0
sg13
I0
sg14
I3
sg15
I0
sg16
I1
sg17
I2
sg18
I0
sg19
I3
sg20
I0
sg21
I0
sg22
I1
sg23
I2
sg24
I0
sg25
I0
sg26
I11
sg27
I0
sg28
I0
sg29
I0
ssg30
S'http://www.fourfourtwo.com/statszone/8-2015/matches/803263/player-stats/58845/OVERALL_02#tabs-wrapper-anchor'
p89
ssS'Grealish'
p90
(dp91
g5
(dp92
g7
I1
sg8
I0
sg9
I16
sg10
I0
sg11
I0
sg12
I0
sg13
I0
sg14
I2
sg15
I0
sg16
I2
sg17
I0
sg18
I0
sg19
I2
sg20
I0
sg21
I0
sg22
I1
sg23
I2
sg24
I0
sg25
I0
sg26
I5
sg27
I0
sg28
I0
sg29
I2
ssg30
S'http://www.fourfourtwo.com/statszone/8-2015/matches/803263/player-stats/114283/OVERALL_02#tabs-wrapper-anchor'
p93
ssS'Hutton'
p94
(dp95
g5
(dp96
g7
I1
sg8
I1
sg9
I40
sg10
I0
sg11
I1
sg12
I0
sg13
I0
sg14
I5
sg15
I0
sg16
I1
sg17
I1
sg18
I1
sg19
I1
sg20
I0
sg21
I0
sg22
I0
sg23
I1
sg24
I0
sg25
I0
sg26
I21
sg27
I0
sg28
I0
sg29
I1
ssg30
S'http://www.fourfourtwo.com/statszone/8-2015/matches/803263/player-stats/15405/OVERALL_02#tabs-wrapper-anchor'
p97
ssS'Lescott'
p98
(dp99
g5
(dp100
g7
I0
sg8
I0
sg9
I15
sg10
I0
sg11
I0
sg12
I0
sg13
I0
sg14
I1
sg15
I0
sg16
I2
sg17
I1
sg18
I2
sg19
I1
sg20
I0
sg21
I0
sg22
I1
sg23
I0
sg24
I0
sg25
I0
sg26
I4
sg27
I0
sg28
I0
sg29
I0
ssg30
S'http://www.fourfourtwo.com/statszone/8-2015/matches/803263/player-stats/7551/OVERALL_02#tabs-wrapper-anchor'
p101
ssS'Agbonlahor'
p102
(dp103
g5
(dp104
g7
I0
sg8
I0
sg9
I7
sg10
I0
sg11
I0
sg12
I0
sg13
I0
sg14
I0
sg15
I0
sg16
I0
sg17
I1
sg18
I0
sg19
I2
sg20
I0
sg21
I0
sg22
I0
sg23
I1
sg24
I0
sg25
I0
sg26
I2
sg27
I0
sg28
I0
sg29
I0
ssg30
S'http://www.fourfourtwo.com/statszone/8-2015/matches/803263/player-stats/27450/OVERALL_02#tabs-wrapper-anchor'
p105
ssS'Richardson'
p106
(dp107
g5
(dp108
g7
I1
sg8
I2
sg9
I27
sg10
I0
sg11
I0
sg12
I0
sg13
I0
sg14
I4
sg15
I0
sg16
I3
sg17
I1
sg18
I2
sg19
I0
sg20
I0
sg21
I0
sg22
I0
sg23
I2
sg24
I0
sg25
I0
sg26
I15
sg27
I0
sg28
I0
sg29
I0
ssg30
S'http://www.fourfourtwo.com/statszone/8-2015/matches/803263/player-stats/15073/OVERALL_02#tabs-wrapper-anchor'
p109
ssS'Westwood'
p110
(dp111
g5
(dp112
g7
I0
sg8
I0
sg9
I13
sg10
I0
sg11
I0
sg12
I0
sg13
I0
sg14
I1
sg15
I0
sg16
I0
sg17
I0
sg18
I0
sg19
I0
sg20
I0
sg21
I0
sg22
I0
sg23
I1
sg24
I0
sg25
I0
sg26
I0
sg27
I0
sg28
I0
sg29
I0
ssg30
S'http://www.fourfourtwo.com/statszone/8-2015/matches/803263/player-stats/60551/OVERALL_02#tabs-wrapper-anchor'
p113
ssS'Sinclair'
p114
(dp115
g5
(dp116
g7
I2
sg8
I0
sg9
I11
sg10
I0
sg11
I0
sg12
I0
sg13
I0
sg14
I0
sg15
I0
sg16
I0
sg17
I1
sg18
I0
sg19
I3
sg20
I0
sg21
I0
sg22
I0
sg23
I1
sg24
I0
sg25
I0
sg26
I4
sg27
I0
sg28
I0
sg29
I5
ssg30
S'http://www.fourfourtwo.com/statszone/8-2015/matches/803263/player-stats/19688/OVERALL_02#tabs-wrapper-anchor'
p117
sssS'homeTeam'
p118
S'Tottenham Hotspur'
p119
sS'awayGoals'
p120
I1
sS'awayTeam'
p121
S'Aston Villa'
p122
sS'homeGoals'
p123
I3
sg30
S'http://www.fourfourtwo.com/statszone/8-2015/matches/803263'
p124
sS'match_stats'
p125
(dp126
S'home_shots'
p127
I17
sS'date_location'
p128
VWhite Hart Lane London, Monday, November 2, 2015 - 20:00
p129
sS'away_shots'
p130
I13
sS'away_fouls'
p131
I15
sS'away_possession'
p132
F38.3
sS'home_crnr'
p133
I4
sS'away_crnr'
p134
I3
sS'away_pass_cmplt'
p135
I217
sS'home_pass_cmplt'
p136
I428
sS'time'
p137
S' 20:00'
p138
sS'date'
p139
S' November 2'
p140
sS'home_fouls'
p141
I6
sS'home_possession'
p142
F61.7
sS'home_attck_pass'
p143
I140
sS'away_attck_pass'
p144
I105
ss.