(dp0
S'home_players'
p1
(dp2
S'Ighalo'
p3
(dp4
S'player_stats'
p5
(dp6
S'takeon_success'
p7
I1
sS'chances'
p8
I1
sS'pass_success'
p9
I9
sS'off_target'
p10
I0
sS'fail_tkl'
p11
I1
sS'blocks_cross'
p12
I0
sS'error_shot'
p13
I0
sS'success_tkl'
p14
I0
sS'on_target'
p15
I0
sS'interception'
p16
I1
sS'aerial_won'
p17
I0
sS'blocks'
p18
I0
sS'aerial_lost'
p19
I1
sS'assists'
p20
I0
sS'goals'
p21
I1
sS'foul_sfr'
p22
I2
sS'foul_cmt'
p23
I3
sS'failed_clearence'
p24
I0
sS'ball_recovery'
p25
I0
sS'pass_fail'
p26
I5
sS'success_clearence'
p27
I0
sS'error_goal'
p28
I0
sS'takeon_fail'
p29
I2
ssS'link'
p30
S'http://www.fourfourtwo.com/statszone/8-2015/matches/803351/player-stats/58498/OVERALL_02#tabs-wrapper-anchor'
p31
ssS'Gomes'
p32
(dp33
g5
(dp34
g7
I0
sg8
I0
sg9
I10
sg10
I0
sg11
I0
sg12
I0
sg13
I0
sg14
I0
sg15
I0
sg16
I0
sg17
I1
sg18
I0
sg19
I0
sg20
I0
sg21
I0
sg22
I0
sg23
I0
sg24
I0
sg25
I0
sg26
I18
sg27
I0
sg28
I0
sg29
I0
ssg30
S'http://www.fourfourtwo.com/statszone/8-2015/matches/803351/player-stats/18656/OVERALL_02#tabs-wrapper-anchor'
p35
ssS'Jurado Marin'
p36
(dp37
g5
(dp38
g7
I1
sg8
I1
sg9
I29
sg10
I0
sg11
I0
sg12
I0
sg13
I0
sg14
I2
sg15
I0
sg16
I3
sg17
I0
sg18
I0
sg19
I1
sg20
I0
sg21
I0
sg22
I2
sg23
I1
sg24
I0
sg25
I0
sg26
I9
sg27
I0
sg28
I0
sg29
I5
ssg30
S'http://www.fourfourtwo.com/statszone/8-2015/matches/803351/player-stats/17441/OVERALL_02#tabs-wrapper-anchor'
p39
ssS'Watson'
p40
(dp41
g5
(dp42
g7
I0
sg8
I1
sg9
I29
sg10
I0
sg11
I3
sg12
I0
sg13
I0
sg14
I1
sg15
I0
sg16
I4
sg17
I4
sg18
I0
sg19
I0
sg20
I0
sg21
I0
sg22
I0
sg23
I0
sg24
I0
sg25
I0
sg26
I19
sg27
I0
sg28
I0
sg29
I0
ssg30
S'http://www.fourfourtwo.com/statszone/8-2015/matches/803351/player-stats/16045/OVERALL_02#tabs-wrapper-anchor'
p43
ssS'Capoue'
p44
(dp45
g5
(dp46
g7
I0
sg8
I0
sg9
I22
sg10
I0
sg11
I1
sg12
I0
sg13
I0
sg14
I3
sg15
I0
sg16
I4
sg17
I1
sg18
I0
sg19
I0
sg20
I0
sg21
I0
sg22
I3
sg23
I1
sg24
I0
sg25
I0
sg26
I11
sg27
I0
sg28
I0
sg29
I2
ssg30
S'http://www.fourfourtwo.com/statszone/8-2015/matches/803351/player-stats/38439/OVERALL_02#tabs-wrapper-anchor'
p47
ssS'Deeney'
p48
(dp49
g5
(dp50
g7
I1
sg8
I0
sg9
I20
sg10
I0
sg11
I1
sg12
I0
sg13
I0
sg14
I1
sg15
I0
sg16
I0
sg17
I6
sg18
I0
sg19
I7
sg20
I1
sg21
I0
sg22
I0
sg23
I0
sg24
I0
sg25
I0
sg26
I26
sg27
I0
sg28
I0
sg29
I1
ssg30
S'http://www.fourfourtwo.com/statszone/8-2015/matches/803351/player-stats/41725/OVERALL_02#tabs-wrapper-anchor'
p51
ssS'Cathcart'
p52
(dp53
g5
(dp54
g7
I0
sg8
I0
sg9
I13
sg10
I0
sg11
I0
sg12
I0
sg13
I0
sg14
I1
sg15
I0
sg16
I4
sg17
I2
sg18
I0
sg19
I0
sg20
I0
sg21
I0
sg22
I0
sg23
I0
sg24
I0
sg25
I0
sg26
I11
sg27
I0
sg28
I0
sg29
I1
ssg30
S'http://www.fourfourtwo.com/statszone/8-2015/matches/803351/player-stats/41338/OVERALL_02#tabs-wrapper-anchor'
p55
ssS'Abdi'
p56
(dp57
g5
(dp58
g7
I0
sg8
I1
sg9
I15
sg10
I0
sg11
I0
sg12
I0
sg13
I0
sg14
I0
sg15
I0
sg16
I2
sg17
I1
sg18
I0
sg19
I1
sg20
I0
sg21
I0
sg22
I0
sg23
I2
sg24
I0
sg25
I0
sg26
I2
sg27
I0
sg28
I0
sg29
I0
ssg30
S'http://www.fourfourtwo.com/statszone/8-2015/matches/803351/player-stats/41926/OVERALL_02#tabs-wrapper-anchor'
p59
ssS'Anya'
p60
(dp61
g5
(dp62
g7
I0
sg8
I0
sg9
I28
sg10
I0
sg11
I0
sg12
I0
sg13
I0
sg14
I1
sg15
I0
sg16
I4
sg17
I2
sg18
I0
sg19
I0
sg20
I0
sg21
I0
sg22
I3
sg23
I1
sg24
I0
sg25
I0
sg26
I16
sg27
I0
sg28
I0
sg29
I1
ssg30
S'http://www.fourfourtwo.com/statszone/8-2015/matches/803351/player-stats/19342/OVERALL_02#tabs-wrapper-anchor'
p63
ssS'Ake'
p64
(dp65
g5
(dp66
g7
I1
sg8
I1
sg9
I21
sg10
I0
sg11
I1
sg12
I0
sg13
I0
sg14
I2
sg15
I0
sg16
I8
sg17
I3
sg18
I0
sg19
I0
sg20
I0
sg21
I0
sg22
I2
sg23
I1
sg24
I0
sg25
I0
sg26
I11
sg27
I0
sg28
I0
sg29
I0
ssg30
S'http://www.fourfourtwo.com/statszone/8-2015/matches/803351/player-stats/126184/OVERALL_02#tabs-wrapper-anchor'
p67
ssS'Britos'
p68
(dp69
g5
(dp70
g7
I0
sg8
I0
sg9
I5
sg10
I0
sg11
I1
sg12
I0
sg13
I0
sg14
I0
sg15
I0
sg16
I6
sg17
I0
sg18
I0
sg19
I0
sg20
I0
sg21
I0
sg22
I0
sg23
I1
sg24
I0
sg25
I0
sg26
I7
sg27
I0
sg28
I0
sg29
I0
ssg30
S'http://www.fourfourtwo.com/statszone/8-2015/matches/803351/player-stats/52153/OVERALL_02#tabs-wrapper-anchor'
p71
sssS'away_players'
p72
(dp73
S'Vertonghen'
p74
(dp75
g5
(dp76
g7
I0
sg8
I1
sg9
I47
sg10
I0
sg11
I1
sg12
I0
sg13
I0
sg14
I1
sg15
I0
sg16
I0
sg17
I2
sg18
I1
sg19
I1
sg20
I0
sg21
I0
sg22
I1
sg23
I0
sg24
I0
sg25
I0
sg26
I8
sg27
I0
sg28
I0
sg29
I0
ssg30
S'http://www.fourfourtwo.com/statszone/8-2015/matches/803351/player-stats/39194/OVERALL_02#tabs-wrapper-anchor'
p77
ssS'Kane'
p78
(dp79
g5
(dp80
g7
I4
sg8
I1
sg9
I21
sg10
I0
sg11
I0
sg12
I0
sg13
I0
sg14
I1
sg15
I0
sg16
I0
sg17
I1
sg18
I1
sg19
I9
sg20
I1
sg21
I0
sg22
I1
sg23
I1
sg24
I0
sg25
I0
sg26
I12
sg27
I0
sg28
I0
sg29
I1
ssg30
S'http://www.fourfourtwo.com/statszone/8-2015/matches/803351/player-stats/78830/OVERALL_02#tabs-wrapper-anchor'
p81
ssS'Dier'
p82
(dp83
g5
(dp84
g7
I0
sg8
I0
sg9
I45
sg10
I0
sg11
I1
sg12
I0
sg13
I0
sg14
I1
sg15
I0
sg16
I2
sg17
I1
sg18
I1
sg19
I0
sg20
I0
sg21
I0
sg22
I0
sg23
I2
sg24
I0
sg25
I0
sg26
I9
sg27
I0
sg28
I0
sg29
I0
ssg30
S'http://www.fourfourtwo.com/statszone/8-2015/matches/803351/player-stats/93264/OVERALL_02#tabs-wrapper-anchor'
p85
ssS'Rose'
p86
(dp87
g5
(dp88
g7
I0
sg8
I0
sg9
I57
sg10
I0
sg11
I0
sg12
I0
sg13
I0
sg14
I2
sg15
I0
sg16
I2
sg17
I1
sg18
I0
sg19
I2
sg20
I0
sg21
I0
sg22
I2
sg23
I1
sg24
I0
sg25
I0
sg26
I16
sg27
I0
sg28
I0
sg29
I1
ssg30
S'http://www.fourfourtwo.com/statszone/8-2015/matches/803351/player-stats/38290/OVERALL_02#tabs-wrapper-anchor'
p89
ssS'Dembele'
p90
(dp91
g5
(dp92
g7
I1
sg8
I0
sg9
I23
sg10
I0
sg11
I0
sg12
I0
sg13
I0
sg14
I0
sg15
I0
sg16
I1
sg17
I0
sg18
I0
sg19
I0
sg20
I0
sg21
I0
sg22
I0
sg23
I1
sg24
I0
sg25
I0
sg26
I3
sg27
I0
sg28
I0
sg29
I0
ssg30
S'http://www.fourfourtwo.com/statszone/8-2015/matches/803351/player-stats/39104/OVERALL_02#tabs-wrapper-anchor'
p93
ssS'Carroll'
p94
(dp95
g5
(dp96
g7
I0
sg8
I0
sg9
I34
sg10
I0
sg11
I0
sg12
I0
sg13
I0
sg14
I1
sg15
I0
sg16
I3
sg17
I0
sg18
I0
sg19
I1
sg20
I0
sg21
I0
sg22
I1
sg23
I1
sg24
I0
sg25
I0
sg26
I9
sg27
I0
sg28
I0
sg29
I1
ssg30
S'http://www.fourfourtwo.com/statszone/8-2015/matches/803351/player-stats/93464/OVERALL_02#tabs-wrapper-anchor'
p97
ssS'Alli'
p98
(dp99
g5
(dp100
g7
I1
sg8
I1
sg9
I37
sg10
I0
sg11
I0
sg12
I0
sg13
I0
sg14
I3
sg15
I0
sg16
I7
sg17
I2
sg18
I0
sg19
I0
sg20
I0
sg21
I0
sg22
I2
sg23
I2
sg24
I0
sg25
I0
sg26
I8
sg27
I0
sg28
I0
sg29
I1
ssg30
S'http://www.fourfourtwo.com/statszone/8-2015/matches/803351/player-stats/108823/OVERALL_02#tabs-wrapper-anchor'
p101
ssS'Lamela'
p102
(dp103
g5
(dp104
g7
I2
sg8
I0
sg9
I23
sg10
I0
sg11
I1
sg12
I0
sg13
I0
sg14
I0
sg15
I0
sg16
I2
sg17
I0
sg18
I0
sg19
I0
sg20
I0
sg21
I1
sg22
I1
sg23
I3
sg24
I0
sg25
I0
sg26
I13
sg27
I0
sg28
I0
sg29
I1
ssg30
S'http://www.fourfourtwo.com/statszone/8-2015/matches/803351/player-stats/62974/OVERALL_02#tabs-wrapper-anchor'
p105
ssS'Lloris'
p106
(dp107
g5
(dp108
g7
I0
sg8
I0
sg9
I17
sg10
I0
sg11
I0
sg12
I0
sg13
I0
sg14
I0
sg15
I0
sg16
I0
sg17
I0
sg18
I0
sg19
I0
sg20
I0
sg21
I0
sg22
I1
sg23
I0
sg24
I0
sg25
I0
sg26
I10
sg27
I0
sg28
I0
sg29
I0
ssg30
S'http://www.fourfourtwo.com/statszone/8-2015/matches/803351/player-stats/37915/OVERALL_02#tabs-wrapper-anchor'
p109
ssS'Alderweireld'
p110
(dp111
g5
(dp112
g7
I0
sg8
I0
sg9
I53
sg10
I0
sg11
I1
sg12
I0
sg13
I0
sg14
I2
sg15
I0
sg16
I3
sg17
I2
sg18
I0
sg19
I2
sg20
I0
sg21
I0
sg22
I0
sg23
I1
sg24
I0
sg25
I0
sg26
I16
sg27
I0
sg28
I0
sg29
I0
ssg30
S'http://www.fourfourtwo.com/statszone/8-2015/matches/803351/player-stats/55605/OVERALL_02#tabs-wrapper-anchor'
p113
ssS'Trippier'
p114
(dp115
g5
(dp116
g7
I0
sg8
I1
sg9
I37
sg10
I0
sg11
I0
sg12
I0
sg13
I0
sg14
I1
sg15
I0
sg16
I3
sg17
I5
sg18
I1
sg19
I2
sg20
I1
sg21
I0
sg22
I1
sg23
I1
sg24
I0
sg25
I0
sg26
I25
sg27
I0
sg28
I0
sg29
I1
ssg30
S'http://www.fourfourtwo.com/statszone/8-2015/matches/803351/player-stats/77794/OVERALL_02#tabs-wrapper-anchor'
p117
sssS'homeTeam'
p118
S'Watford'
p119
sS'awayGoals'
p120
I2
sS'awayTeam'
p121
S'Tottenham Hotspur'
p122
sS'homeGoals'
p123
I1
sg30
S'http://www.fourfourtwo.com/statszone/8-2015/matches/803351'
p124
sS'match_stats'
p125
(dp126
S'home_shots'
p127
I9
sS'date_location'
p128
VVicarage Road Watford, Monday, December 28, 2015 - 15:00
p129
sS'away_shots'
p130
I10
sS'away_fouls'
p131
I13
sS'away_possession'
p132
F62.5
sS'home_crnr'
p133
I5
sS'away_crnr'
p134
I3
sS'away_pass_cmplt'
p135
I407
sS'home_pass_cmplt'
p136
I184
sS'time'
p137
S' 15:00'
p138
sS'date'
p139
S' December 28'
p140
sS'home_fouls'
p141
I11
sS'home_possession'
p142
F37.5
sS'home_attck_pass'
p143
I116
sS'away_attck_pass'
p144
I150
ss.